Archive member included to satisfy reference by file (symbol)

libapp.a(atoi.c.obj)          (--whole-archive)
libapp.a(strtol.c.obj)        (--whole-archive)
libapp.a(strtoul.c.obj)       (--whole-archive)
libapp.a(strncasecmp.c.obj)   (--whole-archive)
libapp.a(strstr.c.obj)        (--whole-archive)
libapp.a(string.c.obj)        (--whole-archive)
libapp.a(prf.c.obj)           (--whole-archive)
libapp.a(stdout_console.c.obj)
                              (--whole-archive)
libapp.a(sprintf.c.obj)       (--whole-archive)
libapp.a(fprintf.c.obj)       (--whole-archive)
libapp.a(main.c.obj)          (--whole-archive)
zephyr/libzephyr.a(isr_tables.c.obj)
                              (--whole-archive)
zephyr/libzephyr.a(mpu_regions.c.obj)
                              (--whole-archive)
zephyr/libzephyr.a(power.c.obj)
                              (--whole-archive)
zephyr/libzephyr.a(soc.c.obj)
                              (--whole-archive)
zephyr/libzephyr.a(exc_exit.S.obj)
                              (--whole-archive)
zephyr/libzephyr.a(irq_init.c.obj)
                              (--whole-archive)
zephyr/libzephyr.a(swap.c.obj)
                              (--whole-archive)
zephyr/libzephyr.a(swap_helper.S.obj)
                              (--whole-archive)
zephyr/libzephyr.a(fault.c.obj)
                              (--whole-archive)
zephyr/libzephyr.a(irq_manage.c.obj)
                              (--whole-archive)
zephyr/libzephyr.a(thread.c.obj)
                              (--whole-archive)
zephyr/libzephyr.a(cpu_idle.S.obj)
                              (--whole-archive)
zephyr/libzephyr.a(fault_s.S.obj)
                              (--whole-archive)
zephyr/libzephyr.a(fatal.c.obj)
                              (--whole-archive)
zephyr/libzephyr.a(sys_fatal_error_handler.c.obj)
                              (--whole-archive)
zephyr/libzephyr.a(thread_abort.c.obj)
                              (--whole-archive)
zephyr/libzephyr.a(isr_wrapper.S.obj)
                              (--whole-archive)
zephyr/libzephyr.a(vector_table.S.obj)
                              (--whole-archive)
zephyr/libzephyr.a(reset.S.obj)
                              (--whole-archive)
zephyr/libzephyr.a(nmi_on_reset.S.obj)
                              (--whole-archive)
zephyr/libzephyr.a(prep_c.c.obj)
                              (--whole-archive)
zephyr/libzephyr.a(scb.c.obj)
                              (--whole-archive)
zephyr/libzephyr.a(nmi.c.obj)
                              (--whole-archive)
zephyr/libzephyr.a(exc_manage.c.obj)
                              (--whole-archive)
zephyr/libzephyr.a(arm_core_mpu.c.obj)
                              (--whole-archive)
zephyr/libzephyr.a(arm_mpu.c.obj)
                              (--whole-archive)
zephyr/libzephyr.a(crc16_sw.c.obj)
                              (--whole-archive)
zephyr/libzephyr.a(crc8_sw.c.obj)
                              (--whole-archive)
zephyr/libzephyr.a(configs.c.obj)
                              (--whole-archive)
zephyr/libzephyr.a(utils.c.obj)
                              (--whole-archive)
zephyr/libzephyr.a(aes_decrypt.c.obj)
                              (--whole-archive)
zephyr/libzephyr.a(aes_encrypt.c.obj)
                              (--whole-archive)
zephyr/libzephyr.a(rand32_entropy_device.c.obj)
                              (--whole-archive)
zephyr/libzephyr.a(nrf5_power_clock.c.obj)
                              (--whole-archive)
zephyr/libzephyr.a(gpio_nrf5.c.obj)
                              (--whole-archive)
zephyr/libzephyr.a(uart_nrf5.c.obj)
                              (--whole-archive)
zephyr/libzephyr.a(entropy_nrf5.c.obj)
                              (--whole-archive)
zephyr/libzephyr.a(sys_clock_init.c.obj)
                              (--whole-archive)
zephyr/libzephyr.a(nrf_rtc_timer.c.obj)
                              (--whole-archive)
zephyr/subsys/bluetooth/common/libsubsys__bluetooth__common.a(dummy.c.obj)
                              (--whole-archive)
zephyr/subsys/bluetooth/common/libsubsys__bluetooth__common.a(rpa.c.obj)
                              (--whole-archive)
zephyr/subsys/bluetooth/host/libsubsys__bluetooth__host.a(hci_raw.c.obj)
                              (--whole-archive)
zephyr/subsys/bluetooth/controller/libsubsys__bluetooth__controller.a(mem.c.obj)
                              (--whole-archive)
zephyr/subsys/bluetooth/controller/libsubsys__bluetooth__controller.a(memq.c.obj)
                              (--whole-archive)
zephyr/subsys/bluetooth/controller/libsubsys__bluetooth__controller.a(mayfly.c.obj)
                              (--whole-archive)
zephyr/subsys/bluetooth/controller/libsubsys__bluetooth__controller.a(util.c.obj)
                              (--whole-archive)
zephyr/subsys/bluetooth/controller/libsubsys__bluetooth__controller.a(ticker.c.obj)
                              (--whole-archive)
zephyr/subsys/bluetooth/controller/libsubsys__bluetooth__controller.a(ll_addr.c.obj)
                              (--whole-archive)
zephyr/subsys/bluetooth/controller/libsubsys__bluetooth__controller.a(ll_tx_pwr.c.obj)
                              (--whole-archive)
zephyr/subsys/bluetooth/controller/libsubsys__bluetooth__controller.a(crypto.c.obj)
                              (--whole-archive)
zephyr/subsys/bluetooth/controller/libsubsys__bluetooth__controller.a(hci_driver.c.obj)
                              (--whole-archive)
zephyr/subsys/bluetooth/controller/libsubsys__bluetooth__controller.a(hci.c.obj)
                              (--whole-archive)
zephyr/subsys/bluetooth/controller/libsubsys__bluetooth__controller.a(ctrl.c.obj)
                              (--whole-archive)
zephyr/subsys/bluetooth/controller/libsubsys__bluetooth__controller.a(ll.c.obj)
                              (--whole-archive)
zephyr/subsys/bluetooth/controller/libsubsys__bluetooth__controller.a(ll_adv.c.obj)
                              (--whole-archive)
zephyr/subsys/bluetooth/controller/libsubsys__bluetooth__controller.a(ll_scan.c.obj)
                              (--whole-archive)
zephyr/subsys/bluetooth/controller/libsubsys__bluetooth__controller.a(ll_master.c.obj)
                              (--whole-archive)
zephyr/subsys/bluetooth/controller/libsubsys__bluetooth__controller.a(ll_test.c.obj)
                              (--whole-archive)
zephyr/subsys/bluetooth/controller/libsubsys__bluetooth__controller.a(ll_filter.c.obj)
                              (--whole-archive)
zephyr/subsys/bluetooth/controller/libsubsys__bluetooth__controller.a(cntr.c.obj)
                              (--whole-archive)
zephyr/subsys/bluetooth/controller/libsubsys__bluetooth__controller.a(ecb.c.obj)
                              (--whole-archive)
zephyr/subsys/bluetooth/controller/libsubsys__bluetooth__controller.a(radio.c.obj)
                              (--whole-archive)
zephyr/subsys/bluetooth/controller/libsubsys__bluetooth__controller.a(mayfly.c.obj)
                              (--whole-archive)
zephyr/subsys/bluetooth/controller/libsubsys__bluetooth__controller.a(ticker.c.obj)
                              (--whole-archive)
zephyr/subsys/net/libsubsys__net.a(buf.c.obj)
                              (--whole-archive)
zephyr/kernel/libkernel.a(device.c.obj)
                              libapp.a(main.c.obj) (device_get_binding)
zephyr/kernel/libkernel.a(errno.c.obj)
                              libapp.a(strtol.c.obj) (__errno)
zephyr/kernel/libkernel.a(idle.c.obj)
                              zephyr/libzephyr.a(irq_manage.c.obj) (_sys_power_save_idle_exit)
zephyr/kernel/libkernel.a(init.c.obj)
                              zephyr/libzephyr.a(prep_c.c.obj) (_bss_zero)
zephyr/kernel/libkernel.a(mempool.c.obj)
                              zephyr/subsys/net/libsubsys__net.a(buf.c.obj) (k_mem_pool_alloc)
zephyr/kernel/libkernel.a(queue.c.obj)
                              zephyr/subsys/bluetooth/controller/libsubsys__bluetooth__controller.a(hci_driver.c.obj) (k_queue_append)
zephyr/kernel/libkernel.a(sched.c.obj)
                              zephyr/kernel/libkernel.a(init.c.obj) (_add_thread_to_ready_q)
zephyr/kernel/libkernel.a(sem.c.obj)
                              zephyr/libzephyr.a(entropy_nrf5.c.obj) (_impl_k_sem_init)
zephyr/kernel/libkernel.a(sys_clock.c.obj)
                              zephyr/libzephyr.a(nrf_rtc_timer.c.obj) (_sys_clock_tick_count)
zephyr/kernel/libkernel.a(system_work_q.c.obj)
                              zephyr/subsys/bluetooth/controller/libsubsys__bluetooth__controller.a(ll_filter.c.obj) (k_sys_work_q)
zephyr/kernel/libkernel.a(thread.c.obj)
                              zephyr/libzephyr.a(sys_fatal_error_handler.c.obj) (k_is_in_isr)
zephyr/kernel/libkernel.a(work_q.c.obj)
                              zephyr/kernel/libkernel.a(system_work_q.c.obj) (k_work_q_start)
zephyr/kernel/libkernel.a(timer.c.obj)
                              zephyr/subsys/bluetooth/controller/libsubsys__bluetooth__controller.a(ctrl.c.obj) (_timer_expiration_handler)
zephyr/kernel/libkernel.a(poll.c.obj)
                              zephyr/kernel/libkernel.a(queue.c.obj) (k_poll_event_init)
/home/swap/directory/sysroots/armv5-zephyr-eabi/usr/lib/arm-zephyr-eabi/6.2.0/armv7e-m/libgcc.a(_lshrdi3.o)
                              libapp.a(prf.c.obj) (__aeabi_llsr)
/home/swap/directory/sysroots/armv5-zephyr-eabi/usr/lib/arm-zephyr-eabi/6.2.0/armv7e-m/libgcc.a(_ashldi3.o)
                              libapp.a(prf.c.obj) (__aeabi_llsl)
/home/swap/directory/sysroots/armv5-zephyr-eabi/usr/lib/arm-zephyr-eabi/6.2.0/armv7e-m/libgcc.a(_aeabi_uldivmod.o)
                              zephyr/subsys/bluetooth/controller/libsubsys__bluetooth__controller.a(ctrl.c.obj) (__aeabi_uldivmod)
/home/swap/directory/sysroots/armv5-zephyr-eabi/usr/lib/arm-zephyr-eabi/6.2.0/armv7e-m/libgcc.a(_popcountsi2.o)
                              zephyr/libzephyr.a(gpio_nrf5.c.obj) (__popcountsi2)
/home/swap/directory/sysroots/armv5-zephyr-eabi/usr/lib/arm-zephyr-eabi/6.2.0/armv7e-m/libgcc.a(_udivmoddi4.o)
                              /home/swap/directory/sysroots/armv5-zephyr-eabi/usr/lib/arm-zephyr-eabi/6.2.0/armv7e-m/libgcc.a(_aeabi_uldivmod.o) (__udivmoddi4)
/home/swap/directory/sysroots/armv5-zephyr-eabi/usr/lib/arm-zephyr-eabi/6.2.0/armv7e-m/libgcc.a(_dvmd_tls.o)
                              /home/swap/directory/sysroots/armv5-zephyr-eabi/usr/lib/arm-zephyr-eabi/6.2.0/armv7e-m/libgcc.a(_aeabi_uldivmod.o) (__aeabi_ldiv0)

Allocating common symbols
Common symbol       size              file

diffns              0x4               zephyr/subsys/bluetooth/controller/libsubsys__bluetooth__controller.a(ctrl.c.obj)
rpa_last_ms         0x8               zephyr/subsys/bluetooth/controller/libsubsys__bluetooth__controller.a(ll_filter.c.obj)
_sys_pm_idle_exit_notify
                    0x1               zephyr/kernel/libkernel.a(idle.c.obj)
wl_anon             0x1               zephyr/subsys/bluetooth/controller/libsubsys__bluetooth__controller.a(ll_filter.c.obj)
us_spent_aux        0x4               zephyr/subsys/bluetooth/controller/libsubsys__bluetooth__controller.a(ctrl.c.obj)
start_time_int      0x4               zephyr/subsys/bluetooth/controller/libsubsys__bluetooth__controller.a(ctrl.c.obj)
start_dynamic_cal   0x8               zephyr/subsys/bluetooth/controller/libsubsys__bluetooth__controller.a(ctrl.c.obj)
start_time37        0x4               zephyr/subsys/bluetooth/controller/libsubsys__bluetooth__controller.a(ctrl.c.obj)
_handling_timeouts  0x4               zephyr/kernel/libkernel.a(sys_clock.c.obj)
aux_scanning        0x60              zephyr/subsys/bluetooth/controller/libsubsys__bluetooth__controller.a(ctrl.c.obj)
recv_thread_data    0x68              zephyr/subsys/bluetooth/controller/libsubsys__bluetooth__controller.a(hci_driver.c.obj)
Time_difference_ticker1
                    0x4               zephyr/subsys/bluetooth/controller/libsubsys__bluetooth__controller.a(ctrl.c.obj)
stop_time_37        0x4               zephyr/subsys/bluetooth/controller/libsubsys__bluetooth__controller.a(ctrl.c.obj)
rpa_work            0x28              zephyr/subsys/bluetooth/controller/libsubsys__bluetooth__controller.a(ll_filter.c.obj)
stop_time_39        0x4               zephyr/subsys/bluetooth/controller/libsubsys__bluetooth__controller.a(ctrl.c.obj)
Time_difference_ticker
                    0x8               zephyr/subsys/bluetooth/controller/libsubsys__bluetooth__controller.a(ctrl.c.obj)
stop_time_int       0x4               zephyr/subsys/bluetooth/controller/libsubsys__bluetooth__controller.a(ctrl.c.obj)
_time_slice_elapsed
                    0x4               zephyr/kernel/libkernel.a(sys_clock.c.obj)
hci_hbuf_pend       0x20              zephyr/subsys/bluetooth/controller/libsubsys__bluetooth__controller.a(hci.c.obj)
stop_time_ticker1   0x4               zephyr/subsys/bluetooth/controller/libsubsys__bluetooth__controller.a(ctrl.c.obj)
start_time          0x4               zephyr/subsys/bluetooth/controller/libsubsys__bluetooth__controller.a(ctrl.c.obj)
stop_dynamic_cal    0x8               zephyr/subsys/bluetooth/controller/libsubsys__bluetooth__controller.a(ctrl.c.obj)
_sys_clock_tick_count
                    0x8               zephyr/kernel/libkernel.a(sys_clock.c.obj)
hci_hbuf_total      0x4               zephyr/subsys/bluetooth/controller/libsubsys__bluetooth__controller.a(hci.c.obj)
k_sys_work_q        0x78              zephyr/kernel/libkernel.a(system_work_q.c.obj)
hci_hbuf_sent       0x4               zephyr/subsys/bluetooth/controller/libsubsys__bluetooth__controller.a(hci.c.obj)
bt_dev              0x4               zephyr/subsys/bluetooth/host/libsubsys__bluetooth__host.a(hci_raw.c.obj)
us_spent_aux1       0x4               zephyr/subsys/bluetooth/controller/libsubsys__bluetooth__controller.a(ctrl.c.obj)
scan_aux_ptr        0x3               zephyr/subsys/bluetooth/controller/libsubsys__bluetooth__controller.a(ctrl.c.obj)
us_spent_39         0x4               zephyr/subsys/bluetooth/controller/libsubsys__bluetooth__controller.a(ctrl.c.obj)
stop_time_ticker    0x4               zephyr/subsys/bluetooth/controller/libsubsys__bluetooth__controller.a(ctrl.c.obj)
start_time_ticker   0x4               zephyr/subsys/bluetooth/controller/libsubsys__bluetooth__controller.a(ctrl.c.obj)
start_time_5        0x4               zephyr/subsys/bluetooth/controller/libsubsys__bluetooth__controller.a(ctrl.c.obj)
event_time_int      0x4               zephyr/subsys/bluetooth/controller/libsubsys__bluetooth__controller.a(ctrl.c.obj)
diff                0x4               zephyr/subsys/bluetooth/controller/libsubsys__bluetooth__controller.a(ctrl.c.obj)
hci_state_mask      0x4               zephyr/subsys/bluetooth/controller/libsubsys__bluetooth__controller.a(hci.c.obj)
us_spent_38         0x4               zephyr/subsys/bluetooth/controller/libsubsys__bluetooth__controller.a(ctrl.c.obj)
cycles_spent_37     0x4               zephyr/subsys/bluetooth/controller/libsubsys__bluetooth__controller.a(ctrl.c.obj)
Time_difference     0x4               zephyr/subsys/bluetooth/controller/libsubsys__bluetooth__controller.a(ctrl.c.obj)
hci_hbuf_acked      0x4               zephyr/subsys/bluetooth/controller/libsubsys__bluetooth__controller.a(hci.c.obj)
stop_time_aux       0x4               zephyr/subsys/bluetooth/controller/libsubsys__bluetooth__controller.a(ctrl.c.obj)
event_time_diff     0x4               zephyr/subsys/bluetooth/controller/libsubsys__bluetooth__controller.a(ctrl.c.obj)
stop_time_aux1      0x4               zephyr/subsys/bluetooth/controller/libsubsys__bluetooth__controller.a(ctrl.c.obj)
prio_recv_thread_data
                    0x68              zephyr/subsys/bluetooth/controller/libsubsys__bluetooth__controller.a(hci_driver.c.obj)
us_spent_5          0x4               zephyr/subsys/bluetooth/controller/libsubsys__bluetooth__controller.a(ctrl.c.obj)
Time_difference_int
                    0x4               zephyr/subsys/bluetooth/controller/libsubsys__bluetooth__controller.a(ctrl.c.obj)
rpa_timeout_ms      0x4               zephyr/subsys/bluetooth/controller/libsubsys__bluetooth__controller.a(ll_filter.c.obj)
us_spent_37         0x4               zephyr/subsys/bluetooth/controller/libsubsys__bluetooth__controller.a(ctrl.c.obj)

Discarded input sections

 .text          0x0000000000000000        0x0 zephyr/CMakeFiles/kernel_elf.dir/misc/empty_file.c.obj
 .data          0x0000000000000000        0x0 zephyr/CMakeFiles/kernel_elf.dir/misc/empty_file.c.obj
 .bss           0x0000000000000000        0x0 zephyr/CMakeFiles/kernel_elf.dir/misc/empty_file.c.obj
 .debug_line    0x0000000000000000        0x0 zephyr/CMakeFiles/kernel_elf.dir/misc/empty_file.c.obj
 .debug_str     0x0000000000000000       0xfd zephyr/CMakeFiles/kernel_elf.dir/misc/empty_file.c.obj
 .comment       0x0000000000000000       0x12 zephyr/CMakeFiles/kernel_elf.dir/misc/empty_file.c.obj
 .ARM.attributes
                0x0000000000000000       0x33 zephyr/CMakeFiles/kernel_elf.dir/misc/empty_file.c.obj
 .text          0x0000000000000000        0x0 zephyr/CMakeFiles/kernel_elf.dir/isr_tables.c.obj
 .data          0x0000000000000000        0x0 zephyr/CMakeFiles/kernel_elf.dir/isr_tables.c.obj
 .bss           0x0000000000000000        0x0 zephyr/CMakeFiles/kernel_elf.dir/isr_tables.c.obj
 .text          0x0000000000000000        0x0 libapp.a(atoi.c.obj)
 .data          0x0000000000000000        0x0 libapp.a(atoi.c.obj)
 .bss           0x0000000000000000        0x0 libapp.a(atoi.c.obj)
 .text.atoi     0x0000000000000000       0x48 libapp.a(atoi.c.obj)
 .debug_info    0x0000000000000000       0xe5 libapp.a(atoi.c.obj)
 .debug_abbrev  0x0000000000000000       0xe2 libapp.a(atoi.c.obj)
 .debug_loc     0x0000000000000000       0xaa libapp.a(atoi.c.obj)
 .debug_aranges
                0x0000000000000000       0x20 libapp.a(atoi.c.obj)
 .debug_ranges  0x0000000000000000       0x10 libapp.a(atoi.c.obj)
 .debug_line    0x0000000000000000       0xc3 libapp.a(atoi.c.obj)
 .debug_str     0x0000000000000000      0x138 libapp.a(atoi.c.obj)
 .comment       0x0000000000000000       0x12 libapp.a(atoi.c.obj)
 .debug_frame   0x0000000000000000       0x28 libapp.a(atoi.c.obj)
 .ARM.attributes
                0x0000000000000000       0x33 libapp.a(atoi.c.obj)
 .text          0x0000000000000000        0x0 libapp.a(strtol.c.obj)
 .data          0x0000000000000000        0x0 libapp.a(strtol.c.obj)
 .bss           0x0000000000000000        0x0 libapp.a(strtol.c.obj)
 .text.strtol   0x0000000000000000       0xf2 libapp.a(strtol.c.obj)
 .debug_info    0x0000000000000000      0x1ec libapp.a(strtol.c.obj)
 .debug_abbrev  0x0000000000000000       0xde libapp.a(strtol.c.obj)
 .debug_loc     0x0000000000000000      0x345 libapp.a(strtol.c.obj)
 .debug_aranges
                0x0000000000000000       0x20 libapp.a(strtol.c.obj)
 .debug_ranges  0x0000000000000000       0x10 libapp.a(strtol.c.obj)
 .debug_line    0x0000000000000000      0x158 libapp.a(strtol.c.obj)
 .debug_str     0x0000000000000000      0x18e libapp.a(strtol.c.obj)
 .comment       0x0000000000000000       0x12 libapp.a(strtol.c.obj)
 .debug_frame   0x0000000000000000       0x34 libapp.a(strtol.c.obj)
 .ARM.attributes
                0x0000000000000000       0x33 libapp.a(strtol.c.obj)
 .text          0x0000000000000000        0x0 libapp.a(strtoul.c.obj)
 .data          0x0000000000000000        0x0 libapp.a(strtoul.c.obj)
 .bss           0x0000000000000000        0x0 libapp.a(strtoul.c.obj)
 .text.strtoul  0x0000000000000000       0xf8 libapp.a(strtoul.c.obj)
 .debug_info    0x0000000000000000      0x1e5 libapp.a(strtoul.c.obj)
 .debug_abbrev  0x0000000000000000       0xde libapp.a(strtoul.c.obj)
 .debug_loc     0x0000000000000000      0x35d libapp.a(strtoul.c.obj)
 .debug_aranges
                0x0000000000000000       0x20 libapp.a(strtoul.c.obj)
 .debug_ranges  0x0000000000000000       0x10 libapp.a(strtoul.c.obj)
 .debug_line    0x0000000000000000      0x146 libapp.a(strtoul.c.obj)
 .debug_str     0x0000000000000000      0x187 libapp.a(strtoul.c.obj)
 .comment       0x0000000000000000       0x12 libapp.a(strtoul.c.obj)
 .debug_frame   0x0000000000000000       0x30 libapp.a(strtoul.c.obj)
 .ARM.attributes
                0x0000000000000000       0x33 libapp.a(strtoul.c.obj)
 .text          0x0000000000000000        0x0 libapp.a(strncasecmp.c.obj)
 .data          0x0000000000000000        0x0 libapp.a(strncasecmp.c.obj)
 .bss           0x0000000000000000        0x0 libapp.a(strncasecmp.c.obj)
 .text.strncasecmp
                0x0000000000000000       0x2c libapp.a(strncasecmp.c.obj)
 .rodata.charmap
                0x0000000000000000      0x100 libapp.a(strncasecmp.c.obj)
 .debug_info    0x0000000000000000       0xda libapp.a(strncasecmp.c.obj)
 .debug_abbrev  0x0000000000000000       0x91 libapp.a(strncasecmp.c.obj)
 .debug_loc     0x0000000000000000       0xb7 libapp.a(strncasecmp.c.obj)
 .debug_aranges
                0x0000000000000000       0x20 libapp.a(strncasecmp.c.obj)
 .debug_ranges  0x0000000000000000       0x10 libapp.a(strncasecmp.c.obj)
 .debug_line    0x0000000000000000       0x7a libapp.a(strncasecmp.c.obj)
 .debug_str     0x0000000000000000      0x15a libapp.a(strncasecmp.c.obj)
 .comment       0x0000000000000000       0x12 libapp.a(strncasecmp.c.obj)
 .debug_frame   0x0000000000000000       0x2c libapp.a(strncasecmp.c.obj)
 .ARM.attributes
                0x0000000000000000       0x33 libapp.a(strncasecmp.c.obj)
 .text          0x0000000000000000        0x0 libapp.a(strstr.c.obj)
 .data          0x0000000000000000        0x0 libapp.a(strstr.c.obj)
 .bss           0x0000000000000000        0x0 libapp.a(strstr.c.obj)
 .text.strstr   0x0000000000000000       0x36 libapp.a(strstr.c.obj)
 .debug_info    0x0000000000000000       0xf7 libapp.a(strstr.c.obj)
 .debug_abbrev  0x0000000000000000       0xd2 libapp.a(strstr.c.obj)
 .debug_loc     0x0000000000000000       0xae libapp.a(strstr.c.obj)
 .debug_aranges
                0x0000000000000000       0x20 libapp.a(strstr.c.obj)
 .debug_ranges  0x0000000000000000       0x10 libapp.a(strstr.c.obj)
 .debug_line    0x0000000000000000      0x126 libapp.a(strstr.c.obj)
 .debug_str     0x0000000000000000      0x147 libapp.a(strstr.c.obj)
 .comment       0x0000000000000000       0x12 libapp.a(strstr.c.obj)
 .debug_frame   0x0000000000000000       0x30 libapp.a(strstr.c.obj)
 .ARM.attributes
                0x0000000000000000       0x33 libapp.a(strstr.c.obj)
 .text          0x0000000000000000        0x0 libapp.a(string.c.obj)
 .data          0x0000000000000000        0x0 libapp.a(string.c.obj)
 .bss           0x0000000000000000        0x0 libapp.a(string.c.obj)
 .text.strncpy  0x0000000000000000       0x22 libapp.a(string.c.obj)
 .text.strchr   0x0000000000000000       0x1e libapp.a(string.c.obj)
 .text.strrchr  0x0000000000000000       0x1a libapp.a(string.c.obj)
 .text.strlen   0x0000000000000000       0x10 libapp.a(string.c.obj)
 .text.strncmp  0x0000000000000000       0x22 libapp.a(string.c.obj)
 .text.strcat   0x0000000000000000       0x16 libapp.a(string.c.obj)
 .text.strncat  0x0000000000000000       0x2a libapp.a(string.c.obj)
 .text.memmove  0x0000000000000000       0x30 libapp.a(string.c.obj)
 .text.memchr   0x0000000000000000       0x1e libapp.a(string.c.obj)
 .text          0x0000000000000000        0x0 libapp.a(prf.c.obj)
 .data          0x0000000000000000        0x0 libapp.a(prf.c.obj)
 .bss           0x0000000000000000        0x0 libapp.a(prf.c.obj)
 .text._to_x    0x0000000000000000       0x50 libapp.a(prf.c.obj)
 .text._rlrshift
                0x0000000000000000       0x1e libapp.a(prf.c.obj)
 .text._ldiv5   0x0000000000000000       0x60 libapp.a(prf.c.obj)
 .text._get_digit
                0x0000000000000000       0x2e libapp.a(prf.c.obj)
 .text._prf     0x0000000000000000      0x768 libapp.a(prf.c.obj)
 .rodata._prf.str1.1
                0x0000000000000000        0xb libapp.a(prf.c.obj)
 .rodata.shifts.3783
                0x0000000000000000        0x3 libapp.a(prf.c.obj)
 .debug_info    0x0000000000000000      0xc51 libapp.a(prf.c.obj)
 .debug_abbrev  0x0000000000000000      0x335 libapp.a(prf.c.obj)
 .debug_loc     0x0000000000000000     0x1636 libapp.a(prf.c.obj)
 .debug_aranges
                0x0000000000000000       0x40 libapp.a(prf.c.obj)
 .debug_ranges  0x0000000000000000      0x120 libapp.a(prf.c.obj)
 .debug_line    0x0000000000000000      0x459 libapp.a(prf.c.obj)
 .debug_str     0x0000000000000000      0x399 libapp.a(prf.c.obj)
 .comment       0x0000000000000000       0x12 libapp.a(prf.c.obj)
 .debug_frame   0x0000000000000000       0xb8 libapp.a(prf.c.obj)
 .ARM.attributes
                0x0000000000000000       0x33 libapp.a(prf.c.obj)
 .text          0x0000000000000000        0x0 libapp.a(stdout_console.c.obj)
 .data          0x0000000000000000        0x0 libapp.a(stdout_console.c.obj)
 .bss           0x0000000000000000        0x0 libapp.a(stdout_console.c.obj)
 .text._stdout_hook_default
                0x0000000000000000        0x6 libapp.a(stdout_console.c.obj)
 .text.__stdout_hook_install
                0x0000000000000000        0xc libapp.a(stdout_console.c.obj)
 .text.fputc    0x0000000000000000       0x14 libapp.a(stdout_console.c.obj)
 .text.fputs    0x0000000000000000       0x24 libapp.a(stdout_console.c.obj)
 .text.fwrite   0x0000000000000000       0x44 libapp.a(stdout_console.c.obj)
 .text.puts     0x0000000000000000       0x24 libapp.a(stdout_console.c.obj)
 .data._stdout_hook
                0x0000000000000000        0x4 libapp.a(stdout_console.c.obj)
 .debug_info    0x0000000000000000      0x243 libapp.a(stdout_console.c.obj)
 .debug_abbrev  0x0000000000000000      0x162 libapp.a(stdout_console.c.obj)
 .debug_loc     0x0000000000000000      0x20a libapp.a(stdout_console.c.obj)
 .debug_aranges
                0x0000000000000000       0x48 libapp.a(stdout_console.c.obj)
 .debug_ranges  0x0000000000000000       0x38 libapp.a(stdout_console.c.obj)
 .debug_line    0x0000000000000000      0x1a2 libapp.a(stdout_console.c.obj)
 .debug_str     0x0000000000000000      0x1ee libapp.a(stdout_console.c.obj)
 .comment       0x0000000000000000       0x12 libapp.a(stdout_console.c.obj)
 .debug_frame   0x0000000000000000       0x98 libapp.a(stdout_console.c.obj)
 .ARM.attributes
                0x0000000000000000       0x33 libapp.a(stdout_console.c.obj)
 .text          0x0000000000000000        0x0 libapp.a(sprintf.c.obj)
 .data          0x0000000000000000        0x0 libapp.a(sprintf.c.obj)
 .bss           0x0000000000000000        0x0 libapp.a(sprintf.c.obj)
 .text.sprintf_out
                0x0000000000000000       0x1a libapp.a(sprintf.c.obj)
 .text.snprintf
                0x0000000000000000       0x30 libapp.a(sprintf.c.obj)
 .text.sprintf  0x0000000000000000       0x30 libapp.a(sprintf.c.obj)
 .text.vsnprintf
                0x0000000000000000       0x24 libapp.a(sprintf.c.obj)
 .text.vsprintf
                0x0000000000000000       0x28 libapp.a(sprintf.c.obj)
 .debug_info    0x0000000000000000      0x325 libapp.a(sprintf.c.obj)
 .debug_abbrev  0x0000000000000000      0x13d libapp.a(sprintf.c.obj)
 .debug_loc     0x0000000000000000      0x1cb libapp.a(sprintf.c.obj)
 .debug_aranges
                0x0000000000000000       0x40 libapp.a(sprintf.c.obj)
 .debug_ranges  0x0000000000000000       0x30 libapp.a(sprintf.c.obj)
 .debug_line    0x0000000000000000      0x163 libapp.a(sprintf.c.obj)
 .debug_str     0x0000000000000000      0x1d6 libapp.a(sprintf.c.obj)
 .comment       0x0000000000000000       0x12 libapp.a(sprintf.c.obj)
 .debug_frame   0x0000000000000000       0xa4 libapp.a(sprintf.c.obj)
 .ARM.attributes
                0x0000000000000000       0x33 libapp.a(sprintf.c.obj)
 .text          0x0000000000000000        0x0 libapp.a(fprintf.c.obj)
 .data          0x0000000000000000        0x0 libapp.a(fprintf.c.obj)
 .bss           0x0000000000000000        0x0 libapp.a(fprintf.c.obj)
 .text.fprintf  0x0000000000000000       0x24 libapp.a(fprintf.c.obj)
 .text.vfprintf
                0x0000000000000000       0x10 libapp.a(fprintf.c.obj)
 .text.printf   0x0000000000000000       0x24 libapp.a(fprintf.c.obj)
 .text.vprintf  0x0000000000000000       0x10 libapp.a(fprintf.c.obj)
 .debug_info    0x0000000000000000      0x223 libapp.a(fprintf.c.obj)
 .debug_abbrev  0x0000000000000000      0x120 libapp.a(fprintf.c.obj)
 .debug_loc     0x0000000000000000       0xd6 libapp.a(fprintf.c.obj)
 .debug_aranges
                0x0000000000000000       0x38 libapp.a(fprintf.c.obj)
 .debug_ranges  0x0000000000000000       0x28 libapp.a(fprintf.c.obj)
 .debug_line    0x0000000000000000      0x164 libapp.a(fprintf.c.obj)
 .debug_str     0x0000000000000000      0x1b6 libapp.a(fprintf.c.obj)
 .comment       0x0000000000000000       0x12 libapp.a(fprintf.c.obj)
 .debug_frame   0x0000000000000000       0x8c libapp.a(fprintf.c.obj)
 .ARM.attributes
                0x0000000000000000       0x33 libapp.a(fprintf.c.obj)
 .text          0x0000000000000000        0x0 libapp.a(main.c.obj)
 .data          0x0000000000000000        0x0 libapp.a(main.c.obj)
 .bss           0x0000000000000000        0x0 libapp.a(main.c.obj)
 .text          0x0000000000000000        0x0 zephyr/libzephyr.a(isr_tables.c.obj)
 .data          0x0000000000000000        0x0 zephyr/libzephyr.a(isr_tables.c.obj)
 .bss           0x0000000000000000        0x0 zephyr/libzephyr.a(isr_tables.c.obj)
 .text.isr_tables_syms
                0x0000000000000000        0x2 zephyr/libzephyr.a(isr_tables.c.obj)
 .text          0x0000000000000000        0x0 zephyr/libzephyr.a(mpu_regions.c.obj)
 .data          0x0000000000000000        0x0 zephyr/libzephyr.a(mpu_regions.c.obj)
 .bss           0x0000000000000000        0x0 zephyr/libzephyr.a(mpu_regions.c.obj)
 .text          0x0000000000000000        0x0 zephyr/libzephyr.a(power.c.obj)
 .data          0x0000000000000000        0x0 zephyr/libzephyr.a(power.c.obj)
 .bss           0x0000000000000000        0x0 zephyr/libzephyr.a(power.c.obj)
 .text._sys_soc_set_power_state
                0x0000000000000000       0x28 zephyr/libzephyr.a(power.c.obj)
 .text._sys_soc_power_state_post_ops
                0x0000000000000000        0x2 zephyr/libzephyr.a(power.c.obj)
 .debug_info    0x0000000000000000      0xa1a zephyr/libzephyr.a(power.c.obj)
 .debug_abbrev  0x0000000000000000      0x2b2 zephyr/libzephyr.a(power.c.obj)
 .debug_loc     0x0000000000000000       0x55 zephyr/libzephyr.a(power.c.obj)
 .debug_aranges
                0x0000000000000000       0x28 zephyr/libzephyr.a(power.c.obj)
 .debug_ranges  0x0000000000000000       0x18 zephyr/libzephyr.a(power.c.obj)
 .debug_line    0x0000000000000000      0x270 zephyr/libzephyr.a(power.c.obj)
 .debug_str     0x0000000000000000      0x7e8 zephyr/libzephyr.a(power.c.obj)
 .comment       0x0000000000000000       0x12 zephyr/libzephyr.a(power.c.obj)
 .debug_frame   0x0000000000000000       0x30 zephyr/libzephyr.a(power.c.obj)
 .ARM.attributes
                0x0000000000000000       0x33 zephyr/libzephyr.a(power.c.obj)
 .text          0x0000000000000000        0x0 zephyr/libzephyr.a(soc.c.obj)
 .data          0x0000000000000000        0x0 zephyr/libzephyr.a(soc.c.obj)
 .bss           0x0000000000000000        0x0 zephyr/libzephyr.a(soc.c.obj)
 .text          0x0000000000000000        0x0 zephyr/libzephyr.a(exc_exit.S.obj)
 .data          0x0000000000000000        0x0 zephyr/libzephyr.a(exc_exit.S.obj)
 .bss           0x0000000000000000        0x0 zephyr/libzephyr.a(exc_exit.S.obj)
 .text          0x0000000000000000        0x0 zephyr/libzephyr.a(irq_init.c.obj)
 .data          0x0000000000000000        0x0 zephyr/libzephyr.a(irq_init.c.obj)
 .bss           0x0000000000000000        0x0 zephyr/libzephyr.a(irq_init.c.obj)
 .text          0x0000000000000000        0x0 zephyr/libzephyr.a(swap.c.obj)
 .data          0x0000000000000000        0x0 zephyr/libzephyr.a(swap.c.obj)
 .bss           0x0000000000000000        0x0 zephyr/libzephyr.a(swap.c.obj)
 .text          0x0000000000000000        0x0 zephyr/libzephyr.a(swap_helper.S.obj)
 .data          0x0000000000000000        0x0 zephyr/libzephyr.a(swap_helper.S.obj)
 .bss           0x0000000000000000        0x0 zephyr/libzephyr.a(swap_helper.S.obj)
 .text          0x0000000000000000        0x0 zephyr/libzephyr.a(fault.c.obj)
 .data          0x0000000000000000        0x0 zephyr/libzephyr.a(fault.c.obj)
 .bss           0x0000000000000000        0x0 zephyr/libzephyr.a(fault.c.obj)
 .text          0x0000000000000000        0x0 zephyr/libzephyr.a(irq_manage.c.obj)
 .data          0x0000000000000000        0x0 zephyr/libzephyr.a(irq_manage.c.obj)
 .bss           0x0000000000000000        0x0 zephyr/libzephyr.a(irq_manage.c.obj)
 .text          0x0000000000000000        0x0 zephyr/libzephyr.a(thread.c.obj)
 .data          0x0000000000000000        0x0 zephyr/libzephyr.a(thread.c.obj)
 .bss           0x0000000000000000        0x0 zephyr/libzephyr.a(thread.c.obj)
 .text          0x0000000000000000        0x0 zephyr/libzephyr.a(cpu_idle.S.obj)
 .data          0x0000000000000000        0x0 zephyr/libzephyr.a(cpu_idle.S.obj)
 .bss           0x0000000000000000        0x0 zephyr/libzephyr.a(cpu_idle.S.obj)
 .text._NanoIdleValGet
                0x0000000000000000        0xc zephyr/libzephyr.a(cpu_idle.S.obj)
 .text._NanoIdleValClear
                0x0000000000000000        0xc zephyr/libzephyr.a(cpu_idle.S.obj)
 .text.k_cpu_atomic_idle
                0x0000000000000000       0x14 zephyr/libzephyr.a(cpu_idle.S.obj)
 .text          0x0000000000000000        0x0 zephyr/libzephyr.a(fault_s.S.obj)
 .data          0x0000000000000000        0x0 zephyr/libzephyr.a(fault_s.S.obj)
 .bss           0x0000000000000000        0x0 zephyr/libzephyr.a(fault_s.S.obj)
 .text          0x0000000000000000        0x0 zephyr/libzephyr.a(fatal.c.obj)
 .data          0x0000000000000000        0x0 zephyr/libzephyr.a(fatal.c.obj)
 .bss           0x0000000000000000        0x0 zephyr/libzephyr.a(fatal.c.obj)
 .text._arch_syscall_oops
                0x0000000000000000       0x1a zephyr/libzephyr.a(fatal.c.obj)
 .text          0x0000000000000000        0x0 zephyr/libzephyr.a(sys_fatal_error_handler.c.obj)
 .data          0x0000000000000000        0x0 zephyr/libzephyr.a(sys_fatal_error_handler.c.obj)
 .bss           0x0000000000000000        0x0 zephyr/libzephyr.a(sys_fatal_error_handler.c.obj)
 .text          0x0000000000000000        0x0 zephyr/libzephyr.a(thread_abort.c.obj)
 .data          0x0000000000000000        0x0 zephyr/libzephyr.a(thread_abort.c.obj)
 .bss           0x0000000000000000        0x0 zephyr/libzephyr.a(thread_abort.c.obj)
 .text          0x0000000000000000        0x0 zephyr/libzephyr.a(isr_wrapper.S.obj)
 .data          0x0000000000000000        0x0 zephyr/libzephyr.a(isr_wrapper.S.obj)
 .bss           0x0000000000000000        0x0 zephyr/libzephyr.a(isr_wrapper.S.obj)
 .text          0x0000000000000000        0x0 zephyr/libzephyr.a(vector_table.S.obj)
 .data          0x0000000000000000        0x0 zephyr/libzephyr.a(vector_table.S.obj)
 .bss           0x0000000000000000        0x0 zephyr/libzephyr.a(vector_table.S.obj)
 .text          0x0000000000000000        0x0 zephyr/libzephyr.a(reset.S.obj)
 .data          0x0000000000000000        0x0 zephyr/libzephyr.a(reset.S.obj)
 .bss           0x0000000000000000        0x0 zephyr/libzephyr.a(reset.S.obj)
 .text          0x0000000000000000        0x0 zephyr/libzephyr.a(nmi_on_reset.S.obj)
 .data          0x0000000000000000        0x0 zephyr/libzephyr.a(nmi_on_reset.S.obj)
 .bss           0x0000000000000000        0x0 zephyr/libzephyr.a(nmi_on_reset.S.obj)
 .text          0x0000000000000000        0x0 zephyr/libzephyr.a(prep_c.c.obj)
 .data          0x0000000000000000        0x0 zephyr/libzephyr.a(prep_c.c.obj)
 .bss           0x0000000000000000        0x0 zephyr/libzephyr.a(prep_c.c.obj)
 .text          0x0000000000000000        0x0 zephyr/libzephyr.a(scb.c.obj)
 .data          0x0000000000000000        0x0 zephyr/libzephyr.a(scb.c.obj)
 .bss           0x0000000000000000        0x0 zephyr/libzephyr.a(scb.c.obj)
 .text.sys_arch_reboot
                0x0000000000000000       0x24 zephyr/libzephyr.a(scb.c.obj)
 .debug_info    0x0000000000000000      0x74c zephyr/libzephyr.a(scb.c.obj)
 .debug_abbrev  0x0000000000000000      0x1cf zephyr/libzephyr.a(scb.c.obj)
 .debug_aranges
                0x0000000000000000       0x20 zephyr/libzephyr.a(scb.c.obj)
 .debug_ranges  0x0000000000000000       0x10 zephyr/libzephyr.a(scb.c.obj)
 .debug_line    0x0000000000000000      0x1f7 zephyr/libzephyr.a(scb.c.obj)
 .debug_str     0x0000000000000000      0x553 zephyr/libzephyr.a(scb.c.obj)
 .comment       0x0000000000000000       0x12 zephyr/libzephyr.a(scb.c.obj)
 .debug_frame   0x0000000000000000       0x20 zephyr/libzephyr.a(scb.c.obj)
 .ARM.attributes
                0x0000000000000000       0x33 zephyr/libzephyr.a(scb.c.obj)
 .text          0x0000000000000000        0x0 zephyr/libzephyr.a(nmi.c.obj)
 .data          0x0000000000000000        0x0 zephyr/libzephyr.a(nmi.c.obj)
 .bss           0x0000000000000000        0x0 zephyr/libzephyr.a(nmi.c.obj)
 .text          0x0000000000000000        0x0 zephyr/libzephyr.a(exc_manage.c.obj)
 .data          0x0000000000000000        0x0 zephyr/libzephyr.a(exc_manage.c.obj)
 .bss           0x0000000000000000        0x0 zephyr/libzephyr.a(exc_manage.c.obj)
 .text.sys_exc_esf_dump
                0x0000000000000000        0x2 zephyr/libzephyr.a(exc_manage.c.obj)
 .debug_info    0x0000000000000000      0x639 zephyr/libzephyr.a(exc_manage.c.obj)
 .debug_abbrev  0x0000000000000000      0x1ad zephyr/libzephyr.a(exc_manage.c.obj)
 .debug_aranges
                0x0000000000000000       0x20 zephyr/libzephyr.a(exc_manage.c.obj)
 .debug_ranges  0x0000000000000000       0x10 zephyr/libzephyr.a(exc_manage.c.obj)
 .debug_line    0x0000000000000000      0x16b zephyr/libzephyr.a(exc_manage.c.obj)
 .debug_str     0x0000000000000000      0x462 zephyr/libzephyr.a(exc_manage.c.obj)
 .comment       0x0000000000000000       0x12 zephyr/libzephyr.a(exc_manage.c.obj)
 .debug_frame   0x0000000000000000       0x20 zephyr/libzephyr.a(exc_manage.c.obj)
 .ARM.attributes
                0x0000000000000000       0x33 zephyr/libzephyr.a(exc_manage.c.obj)
 .text          0x0000000000000000        0x0 zephyr/libzephyr.a(arm_core_mpu.c.obj)
 .data          0x0000000000000000        0x0 zephyr/libzephyr.a(arm_core_mpu.c.obj)
 .bss           0x0000000000000000        0x0 zephyr/libzephyr.a(arm_core_mpu.c.obj)
 .debug_info    0x0000000000000000      0x714 zephyr/libzephyr.a(arm_core_mpu.c.obj)
 .debug_abbrev  0x0000000000000000      0x19a zephyr/libzephyr.a(arm_core_mpu.c.obj)
 .debug_aranges
                0x0000000000000000       0x18 zephyr/libzephyr.a(arm_core_mpu.c.obj)
 .debug_line    0x0000000000000000      0x23b zephyr/libzephyr.a(arm_core_mpu.c.obj)
 .debug_str     0x0000000000000000      0x5ad zephyr/libzephyr.a(arm_core_mpu.c.obj)
 .comment       0x0000000000000000       0x12 zephyr/libzephyr.a(arm_core_mpu.c.obj)
 .ARM.attributes
                0x0000000000000000       0x33 zephyr/libzephyr.a(arm_core_mpu.c.obj)
 .text          0x0000000000000000        0x0 zephyr/libzephyr.a(arm_mpu.c.obj)
 .data          0x0000000000000000        0x0 zephyr/libzephyr.a(arm_mpu.c.obj)
 .bss           0x0000000000000000        0x0 zephyr/libzephyr.a(arm_mpu.c.obj)
 .text.arm_core_mpu_enable
                0x0000000000000000       0x1c zephyr/libzephyr.a(arm_mpu.c.obj)
 .text.arm_core_mpu_disable
                0x0000000000000000       0x1c zephyr/libzephyr.a(arm_mpu.c.obj)
 .text.arm_core_mpu_configure
                0x0000000000000000       0xb8 zephyr/libzephyr.a(arm_mpu.c.obj)
 .text          0x0000000000000000        0x0 zephyr/libzephyr.a(crc16_sw.c.obj)
 .data          0x0000000000000000        0x0 zephyr/libzephyr.a(crc16_sw.c.obj)
 .bss           0x0000000000000000        0x0 zephyr/libzephyr.a(crc16_sw.c.obj)
 .text.crc16    0x0000000000000000       0x54 zephyr/libzephyr.a(crc16_sw.c.obj)
 .text.crc16_ccitt
                0x0000000000000000       0x26 zephyr/libzephyr.a(crc16_sw.c.obj)
 .text.crc16_itu_t
                0x0000000000000000       0x2c zephyr/libzephyr.a(crc16_sw.c.obj)
 .debug_info    0x0000000000000000      0x1ef zephyr/libzephyr.a(crc16_sw.c.obj)
 .debug_abbrev  0x0000000000000000       0xdc zephyr/libzephyr.a(crc16_sw.c.obj)
 .debug_loc     0x0000000000000000      0x21e zephyr/libzephyr.a(crc16_sw.c.obj)
 .debug_aranges
                0x0000000000000000       0x30 zephyr/libzephyr.a(crc16_sw.c.obj)
 .debug_ranges  0x0000000000000000       0x40 zephyr/libzephyr.a(crc16_sw.c.obj)
 .debug_line    0x0000000000000000      0x16c zephyr/libzephyr.a(crc16_sw.c.obj)
 .debug_str     0x0000000000000000      0x1fd zephyr/libzephyr.a(crc16_sw.c.obj)
 .comment       0x0000000000000000       0x12 zephyr/libzephyr.a(crc16_sw.c.obj)
 .debug_frame   0x0000000000000000       0x58 zephyr/libzephyr.a(crc16_sw.c.obj)
 .ARM.attributes
                0x0000000000000000       0x33 zephyr/libzephyr.a(crc16_sw.c.obj)
 .text          0x0000000000000000        0x0 zephyr/libzephyr.a(crc8_sw.c.obj)
 .data          0x0000000000000000        0x0 zephyr/libzephyr.a(crc8_sw.c.obj)
 .bss           0x0000000000000000        0x0 zephyr/libzephyr.a(crc8_sw.c.obj)
 .text.crc8_ccitt
                0x0000000000000000       0x2c zephyr/libzephyr.a(crc8_sw.c.obj)
 .rodata.crc8_ccitt_small_table
                0x0000000000000000       0x10 zephyr/libzephyr.a(crc8_sw.c.obj)
 .debug_info    0x0000000000000000      0x10f zephyr/libzephyr.a(crc8_sw.c.obj)
 .debug_abbrev  0x0000000000000000       0xa7 zephyr/libzephyr.a(crc8_sw.c.obj)
 .debug_loc     0x0000000000000000       0xdf zephyr/libzephyr.a(crc8_sw.c.obj)
 .debug_aranges
                0x0000000000000000       0x20 zephyr/libzephyr.a(crc8_sw.c.obj)
 .debug_ranges  0x0000000000000000       0x10 zephyr/libzephyr.a(crc8_sw.c.obj)
 .debug_line    0x0000000000000000      0x108 zephyr/libzephyr.a(crc8_sw.c.obj)
 .debug_str     0x0000000000000000      0x1d0 zephyr/libzephyr.a(crc8_sw.c.obj)
 .comment       0x0000000000000000       0x12 zephyr/libzephyr.a(crc8_sw.c.obj)
 .debug_frame   0x0000000000000000       0x28 zephyr/libzephyr.a(crc8_sw.c.obj)
 .ARM.attributes
                0x0000000000000000       0x33 zephyr/libzephyr.a(crc8_sw.c.obj)
 .text          0x0000000000000000        0x0 zephyr/libzephyr.a(configs.c.obj)
 .data          0x0000000000000000        0x0 zephyr/libzephyr.a(configs.c.obj)
 .bss           0x0000000000000000        0x0 zephyr/libzephyr.a(configs.c.obj)
 .text          0x0000000000000000        0x0 zephyr/libzephyr.a(utils.c.obj)
 .data          0x0000000000000000        0x0 zephyr/libzephyr.a(utils.c.obj)
 .bss           0x0000000000000000        0x0 zephyr/libzephyr.a(utils.c.obj)
 .text._copy    0x0000000000000000       0x1a zephyr/libzephyr.a(utils.c.obj)
 .text._set     0x0000000000000000        0x4 zephyr/libzephyr.a(utils.c.obj)
 .text._double_byte
                0x0000000000000000       0x12 zephyr/libzephyr.a(utils.c.obj)
 .text._compare
                0x0000000000000000       0x1a zephyr/libzephyr.a(utils.c.obj)
 .debug_info    0x0000000000000000      0x20d zephyr/libzephyr.a(utils.c.obj)
 .debug_abbrev  0x0000000000000000      0x12a zephyr/libzephyr.a(utils.c.obj)
 .debug_loc     0x0000000000000000      0x1b6 zephyr/libzephyr.a(utils.c.obj)
 .debug_aranges
                0x0000000000000000       0x38 zephyr/libzephyr.a(utils.c.obj)
 .debug_ranges  0x0000000000000000       0x48 zephyr/libzephyr.a(utils.c.obj)
 .debug_line    0x0000000000000000      0x16b zephyr/libzephyr.a(utils.c.obj)
 .debug_str     0x0000000000000000      0x21a zephyr/libzephyr.a(utils.c.obj)
 .comment       0x0000000000000000       0x12 zephyr/libzephyr.a(utils.c.obj)
 .debug_frame   0x0000000000000000       0x68 zephyr/libzephyr.a(utils.c.obj)
 .ARM.attributes
                0x0000000000000000       0x33 zephyr/libzephyr.a(utils.c.obj)
 .text          0x0000000000000000        0x0 zephyr/libzephyr.a(aes_decrypt.c.obj)
 .data          0x0000000000000000        0x0 zephyr/libzephyr.a(aes_decrypt.c.obj)
 .bss           0x0000000000000000        0x0 zephyr/libzephyr.a(aes_decrypt.c.obj)
 .text.add_round_key
                0x0000000000000000       0x8a zephyr/libzephyr.a(aes_decrypt.c.obj)
 .text.inv_shift_rows
                0x0000000000000000       0x72 zephyr/libzephyr.a(aes_decrypt.c.obj)
 .text.mult_row_column
                0x0000000000000000      0x24c zephyr/libzephyr.a(aes_decrypt.c.obj)
 .text.tc_aes128_set_decrypt_key
                0x0000000000000000        0x4 zephyr/libzephyr.a(aes_decrypt.c.obj)
 .text.tc_aes_decrypt
                0x0000000000000000       0xd8 zephyr/libzephyr.a(aes_decrypt.c.obj)
 .rodata.inv_sbox
                0x0000000000000000      0x100 zephyr/libzephyr.a(aes_decrypt.c.obj)
 .debug_info    0x0000000000000000      0x73e zephyr/libzephyr.a(aes_decrypt.c.obj)
 .debug_abbrev  0x0000000000000000      0x1bc zephyr/libzephyr.a(aes_decrypt.c.obj)
 .debug_loc     0x0000000000000000      0x1d4 zephyr/libzephyr.a(aes_decrypt.c.obj)
 .debug_aranges
                0x0000000000000000       0x40 zephyr/libzephyr.a(aes_decrypt.c.obj)
 .debug_ranges  0x0000000000000000       0x48 zephyr/libzephyr.a(aes_decrypt.c.obj)
 .debug_line    0x0000000000000000      0x19c zephyr/libzephyr.a(aes_decrypt.c.obj)
 .debug_str     0x0000000000000000      0x2a9 zephyr/libzephyr.a(aes_decrypt.c.obj)
 .comment       0x0000000000000000       0x12 zephyr/libzephyr.a(aes_decrypt.c.obj)
 .debug_frame   0x0000000000000000       0xa0 zephyr/libzephyr.a(aes_decrypt.c.obj)
 .ARM.attributes
                0x0000000000000000       0x33 zephyr/libzephyr.a(aes_decrypt.c.obj)
 .text          0x0000000000000000        0x0 zephyr/libzephyr.a(aes_encrypt.c.obj)
 .data          0x0000000000000000        0x0 zephyr/libzephyr.a(aes_encrypt.c.obj)
 .bss           0x0000000000000000        0x0 zephyr/libzephyr.a(aes_encrypt.c.obj)
 .text.add_round_key
                0x0000000000000000       0x8a zephyr/libzephyr.a(aes_encrypt.c.obj)
 .text.shift_rows
                0x0000000000000000       0x72 zephyr/libzephyr.a(aes_encrypt.c.obj)
 .text.mult_row_column
                0x0000000000000000       0x80 zephyr/libzephyr.a(aes_encrypt.c.obj)
 .text.tc_aes128_set_encrypt_key
                0x0000000000000000       0xac zephyr/libzephyr.a(aes_encrypt.c.obj)
 .text.tc_aes_encrypt
                0x0000000000000000       0xd4 zephyr/libzephyr.a(aes_encrypt.c.obj)
 .rodata        0x0000000000000000       0x2c zephyr/libzephyr.a(aes_encrypt.c.obj)
 .rodata.sbox   0x0000000000000000      0x100 zephyr/libzephyr.a(aes_encrypt.c.obj)
 .debug_info    0x0000000000000000      0x544 zephyr/libzephyr.a(aes_encrypt.c.obj)
 .debug_abbrev  0x0000000000000000      0x1d7 zephyr/libzephyr.a(aes_encrypt.c.obj)
 .debug_loc     0x0000000000000000      0x22e zephyr/libzephyr.a(aes_encrypt.c.obj)
 .debug_aranges
                0x0000000000000000       0x40 zephyr/libzephyr.a(aes_encrypt.c.obj)
 .debug_ranges  0x0000000000000000       0x48 zephyr/libzephyr.a(aes_encrypt.c.obj)
 .debug_line    0x0000000000000000      0x1c7 zephyr/libzephyr.a(aes_encrypt.c.obj)
 .debug_str     0x0000000000000000      0x28e zephyr/libzephyr.a(aes_encrypt.c.obj)
 .comment       0x0000000000000000       0x12 zephyr/libzephyr.a(aes_encrypt.c.obj)
 .debug_frame   0x0000000000000000       0xac zephyr/libzephyr.a(aes_encrypt.c.obj)
 .ARM.attributes
                0x0000000000000000       0x33 zephyr/libzephyr.a(aes_encrypt.c.obj)
 .text          0x0000000000000000        0x0 zephyr/libzephyr.a(rand32_entropy_device.c.obj)
 .data          0x0000000000000000        0x0 zephyr/libzephyr.a(rand32_entropy_device.c.obj)
 .bss           0x0000000000000000        0x0 zephyr/libzephyr.a(rand32_entropy_device.c.obj)
 .text          0x0000000000000000        0x0 zephyr/libzephyr.a(nrf5_power_clock.c.obj)
 .data          0x0000000000000000        0x0 zephyr/libzephyr.a(nrf5_power_clock.c.obj)
 .bss           0x0000000000000000        0x0 zephyr/libzephyr.a(nrf5_power_clock.c.obj)
 .text          0x0000000000000000        0x0 zephyr/libzephyr.a(gpio_nrf5.c.obj)
 .data          0x0000000000000000        0x0 zephyr/libzephyr.a(gpio_nrf5.c.obj)
 .bss           0x0000000000000000        0x0 zephyr/libzephyr.a(gpio_nrf5.c.obj)
 .text.nrf_gpiote_interrupt_enable
                0x0000000000000000        0xc zephyr/libzephyr.a(gpio_nrf5.c.obj)
 .text.nrf_gpiote_interrupt_disable
                0x0000000000000000        0xc zephyr/libzephyr.a(gpio_nrf5.c.obj)
 .text.nrf_gpiote_clear_port_event
                0x0000000000000000       0x10 zephyr/libzephyr.a(gpio_nrf5.c.obj)
 .text          0x0000000000000000        0x0 zephyr/libzephyr.a(uart_nrf5.c.obj)
 .data          0x0000000000000000        0x0 zephyr/libzephyr.a(uart_nrf5.c.obj)
 .bss           0x0000000000000000        0x0 zephyr/libzephyr.a(uart_nrf5.c.obj)
 .text          0x0000000000000000        0x0 zephyr/libzephyr.a(entropy_nrf5.c.obj)
 .data          0x0000000000000000        0x0 zephyr/libzephyr.a(entropy_nrf5.c.obj)
 .bss           0x0000000000000000        0x0 zephyr/libzephyr.a(entropy_nrf5.c.obj)
 .text          0x0000000000000000        0x0 zephyr/libzephyr.a(sys_clock_init.c.obj)
 .data          0x0000000000000000        0x0 zephyr/libzephyr.a(sys_clock_init.c.obj)
 .bss           0x0000000000000000        0x0 zephyr/libzephyr.a(sys_clock_init.c.obj)
 .text          0x0000000000000000        0x0 zephyr/libzephyr.a(nrf_rtc_timer.c.obj)
 .data          0x0000000000000000        0x0 zephyr/libzephyr.a(nrf_rtc_timer.c.obj)
 .bss           0x0000000000000000        0x0 zephyr/libzephyr.a(nrf_rtc_timer.c.obj)
 .text          0x0000000000000000        0x0 zephyr/subsys/bluetooth/common/libsubsys__bluetooth__common.a(dummy.c.obj)
 .data          0x0000000000000000        0x0 zephyr/subsys/bluetooth/common/libsubsys__bluetooth__common.a(dummy.c.obj)
 .bss           0x0000000000000000        0x0 zephyr/subsys/bluetooth/common/libsubsys__bluetooth__common.a(dummy.c.obj)
 .debug_info    0x0000000000000000      0x4c4 zephyr/subsys/bluetooth/common/libsubsys__bluetooth__common.a(dummy.c.obj)
 .debug_abbrev  0x0000000000000000      0x147 zephyr/subsys/bluetooth/common/libsubsys__bluetooth__common.a(dummy.c.obj)
 .debug_aranges
                0x0000000000000000       0x18 zephyr/subsys/bluetooth/common/libsubsys__bluetooth__common.a(dummy.c.obj)
 .debug_line    0x0000000000000000       0xe8 zephyr/subsys/bluetooth/common/libsubsys__bluetooth__common.a(dummy.c.obj)
 .debug_str     0x0000000000000000      0x432 zephyr/subsys/bluetooth/common/libsubsys__bluetooth__common.a(dummy.c.obj)
 .comment       0x0000000000000000       0x12 zephyr/subsys/bluetooth/common/libsubsys__bluetooth__common.a(dummy.c.obj)
 .ARM.attributes
                0x0000000000000000       0x33 zephyr/subsys/bluetooth/common/libsubsys__bluetooth__common.a(dummy.c.obj)
 .text          0x0000000000000000        0x0 zephyr/subsys/bluetooth/common/libsubsys__bluetooth__common.a(rpa.c.obj)
 .data          0x0000000000000000        0x0 zephyr/subsys/bluetooth/common/libsubsys__bluetooth__common.a(rpa.c.obj)
 .bss           0x0000000000000000        0x0 zephyr/subsys/bluetooth/common/libsubsys__bluetooth__common.a(rpa.c.obj)
 .text          0x0000000000000000        0x0 zephyr/subsys/bluetooth/host/libsubsys__bluetooth__host.a(hci_raw.c.obj)
 .data          0x0000000000000000        0x0 zephyr/subsys/bluetooth/host/libsubsys__bluetooth__host.a(hci_raw.c.obj)
 .bss           0x0000000000000000        0x0 zephyr/subsys/bluetooth/host/libsubsys__bluetooth__host.a(hci_raw.c.obj)
 .text          0x0000000000000000        0x0 zephyr/subsys/bluetooth/controller/libsubsys__bluetooth__controller.a(mem.c.obj)
 .data          0x0000000000000000        0x0 zephyr/subsys/bluetooth/controller/libsubsys__bluetooth__controller.a(mem.c.obj)
 .bss           0x0000000000000000        0x0 zephyr/subsys/bluetooth/controller/libsubsys__bluetooth__controller.a(mem.c.obj)
 .text.mem_ut   0x0000000000000000       0xac zephyr/subsys/bluetooth/controller/libsubsys__bluetooth__controller.a(mem.c.obj)
 .text          0x0000000000000000        0x0 zephyr/subsys/bluetooth/controller/libsubsys__bluetooth__controller.a(memq.c.obj)
 .data          0x0000000000000000        0x0 zephyr/subsys/bluetooth/controller/libsubsys__bluetooth__controller.a(memq.c.obj)
 .bss           0x0000000000000000        0x0 zephyr/subsys/bluetooth/controller/libsubsys__bluetooth__controller.a(memq.c.obj)
 .text          0x0000000000000000        0x0 zephyr/subsys/bluetooth/controller/libsubsys__bluetooth__controller.a(mayfly.c.obj)
 .data          0x0000000000000000        0x0 zephyr/subsys/bluetooth/controller/libsubsys__bluetooth__controller.a(mayfly.c.obj)
 .bss           0x0000000000000000        0x0 zephyr/subsys/bluetooth/controller/libsubsys__bluetooth__controller.a(mayfly.c.obj)
 .text          0x0000000000000000        0x0 zephyr/subsys/bluetooth/controller/libsubsys__bluetooth__controller.a(util.c.obj)
 .data          0x0000000000000000        0x0 zephyr/subsys/bluetooth/controller/libsubsys__bluetooth__controller.a(util.c.obj)
 .bss           0x0000000000000000        0x0 zephyr/subsys/bluetooth/controller/libsubsys__bluetooth__controller.a(util.c.obj)
 .text          0x0000000000000000        0x0 zephyr/subsys/bluetooth/controller/libsubsys__bluetooth__controller.a(ticker.c.obj)
 .data          0x0000000000000000        0x0 zephyr/subsys/bluetooth/controller/libsubsys__bluetooth__controller.a(ticker.c.obj)
 .bss           0x0000000000000000        0x0 zephyr/subsys/bluetooth/controller/libsubsys__bluetooth__controller.a(ticker.c.obj)
 .text.ticker_is_initialized
                0x0000000000000000       0x18 zephyr/subsys/bluetooth/controller/libsubsys__bluetooth__controller.a(ticker.c.obj)
 .text          0x0000000000000000        0x0 zephyr/subsys/bluetooth/controller/libsubsys__bluetooth__controller.a(ll_addr.c.obj)
 .data          0x0000000000000000        0x0 zephyr/subsys/bluetooth/controller/libsubsys__bluetooth__controller.a(ll_addr.c.obj)
 .bss           0x0000000000000000        0x0 zephyr/subsys/bluetooth/controller/libsubsys__bluetooth__controller.a(ll_addr.c.obj)
 .text          0x0000000000000000        0x0 zephyr/subsys/bluetooth/controller/libsubsys__bluetooth__controller.a(ll_tx_pwr.c.obj)
 .data          0x0000000000000000        0x0 zephyr/subsys/bluetooth/controller/libsubsys__bluetooth__controller.a(ll_tx_pwr.c.obj)
 .bss           0x0000000000000000        0x0 zephyr/subsys/bluetooth/controller/libsubsys__bluetooth__controller.a(ll_tx_pwr.c.obj)
 .text.ll_tx_pwr_lvl_get
                0x0000000000000000        0x6 zephyr/subsys/bluetooth/controller/libsubsys__bluetooth__controller.a(ll_tx_pwr.c.obj)
 .text          0x0000000000000000        0x0 zephyr/subsys/bluetooth/controller/libsubsys__bluetooth__controller.a(crypto.c.obj)
 .data          0x0000000000000000        0x0 zephyr/subsys/bluetooth/controller/libsubsys__bluetooth__controller.a(crypto.c.obj)
 .bss           0x0000000000000000        0x0 zephyr/subsys/bluetooth/controller/libsubsys__bluetooth__controller.a(crypto.c.obj)
 .text.bt_encrypt_be
                0x0000000000000000        0xa zephyr/subsys/bluetooth/controller/libsubsys__bluetooth__controller.a(crypto.c.obj)
 .text          0x0000000000000000        0x0 zephyr/subsys/bluetooth/controller/libsubsys__bluetooth__controller.a(hci_driver.c.obj)
 .data          0x0000000000000000        0x0 zephyr/subsys/bluetooth/controller/libsubsys__bluetooth__controller.a(hci_driver.c.obj)
 .bss           0x0000000000000000        0x0 zephyr/subsys/bluetooth/controller/libsubsys__bluetooth__controller.a(hci_driver.c.obj)
 .text          0x0000000000000000        0x0 zephyr/subsys/bluetooth/controller/libsubsys__bluetooth__controller.a(hci.c.obj)
 .data          0x0000000000000000        0x0 zephyr/subsys/bluetooth/controller/libsubsys__bluetooth__controller.a(hci.c.obj)
 .bss           0x0000000000000000        0x0 zephyr/subsys/bluetooth/controller/libsubsys__bluetooth__controller.a(hci.c.obj)
 .text          0x0000000000000000        0x0 zephyr/subsys/bluetooth/controller/libsubsys__bluetooth__controller.a(ctrl.c.obj)
 .data          0x0000000000000000        0x0 zephyr/subsys/bluetooth/controller/libsubsys__bluetooth__controller.a(ctrl.c.obj)
 .bss           0x0000000000000000        0x0 zephyr/subsys/bluetooth/controller/libsubsys__bluetooth__controller.a(ctrl.c.obj)
 .text.ll_radio_state_abort
                0x0000000000000000        0x6 zephyr/subsys/bluetooth/controller/libsubsys__bluetooth__controller.a(ctrl.c.obj)
 .text.ll_radio_state_is_idle
                0x0000000000000000        0x4 zephyr/subsys/bluetooth/controller/libsubsys__bluetooth__controller.a(ctrl.c.obj)
 .text.radio_ticks_active_to_start_set
                0x0000000000000000        0xc zephyr/subsys/bluetooth/controller/libsubsys__bluetooth__controller.a(ctrl.c.obj)
 .text.radio_rx_fc_get
                0x0000000000000000       0x28 zephyr/subsys/bluetooth/controller/libsubsys__bluetooth__controller.a(ctrl.c.obj)
 .text.ll_adv_scan_state_cb
                0x0000000000000000        0x2 zephyr/subsys/bluetooth/controller/libsubsys__bluetooth__controller.a(ctrl.c.obj)
 .bss.dynamic_offset
                0x0000000000000000        0x4 zephyr/subsys/bluetooth/controller/libsubsys__bluetooth__controller.a(ctrl.c.obj)
 .text          0x0000000000000000        0x0 zephyr/subsys/bluetooth/controller/libsubsys__bluetooth__controller.a(ll.c.obj)
 .data          0x0000000000000000        0x0 zephyr/subsys/bluetooth/controller/libsubsys__bluetooth__controller.a(ll.c.obj)
 .bss           0x0000000000000000        0x0 zephyr/subsys/bluetooth/controller/libsubsys__bluetooth__controller.a(ll.c.obj)
 .text.ll_timeslice_ticker_id_get
                0x0000000000000000        0xa zephyr/subsys/bluetooth/controller/libsubsys__bluetooth__controller.a(ll.c.obj)
 .text          0x0000000000000000        0x0 zephyr/subsys/bluetooth/controller/libsubsys__bluetooth__controller.a(ll_adv.c.obj)
 .data          0x0000000000000000        0x0 zephyr/subsys/bluetooth/controller/libsubsys__bluetooth__controller.a(ll_adv.c.obj)
 .bss           0x0000000000000000        0x0 zephyr/subsys/bluetooth/controller/libsubsys__bluetooth__controller.a(ll_adv.c.obj)
 .text          0x0000000000000000        0x0 zephyr/subsys/bluetooth/controller/libsubsys__bluetooth__controller.a(ll_scan.c.obj)
 .data          0x0000000000000000        0x0 zephyr/subsys/bluetooth/controller/libsubsys__bluetooth__controller.a(ll_scan.c.obj)
 .bss           0x0000000000000000        0x0 zephyr/subsys/bluetooth/controller/libsubsys__bluetooth__controller.a(ll_scan.c.obj)
 .text          0x0000000000000000        0x0 zephyr/subsys/bluetooth/controller/libsubsys__bluetooth__controller.a(ll_master.c.obj)
 .data          0x0000000000000000        0x0 zephyr/subsys/bluetooth/controller/libsubsys__bluetooth__controller.a(ll_master.c.obj)
 .bss           0x0000000000000000        0x0 zephyr/subsys/bluetooth/controller/libsubsys__bluetooth__controller.a(ll_master.c.obj)
 .text          0x0000000000000000        0x0 zephyr/subsys/bluetooth/controller/libsubsys__bluetooth__controller.a(ll_test.c.obj)
 .data          0x0000000000000000        0x0 zephyr/subsys/bluetooth/controller/libsubsys__bluetooth__controller.a(ll_test.c.obj)
 .bss           0x0000000000000000        0x0 zephyr/subsys/bluetooth/controller/libsubsys__bluetooth__controller.a(ll_test.c.obj)
 .text          0x0000000000000000        0x0 zephyr/subsys/bluetooth/controller/libsubsys__bluetooth__controller.a(ll_filter.c.obj)
 .data          0x0000000000000000        0x0 zephyr/subsys/bluetooth/controller/libsubsys__bluetooth__controller.a(ll_filter.c.obj)
 .bss           0x0000000000000000        0x0 zephyr/subsys/bluetooth/controller/libsubsys__bluetooth__controller.a(ll_filter.c.obj)
 .text          0x0000000000000000        0x0 zephyr/subsys/bluetooth/controller/libsubsys__bluetooth__controller.a(cntr.c.obj)
 .data          0x0000000000000000        0x0 zephyr/subsys/bluetooth/controller/libsubsys__bluetooth__controller.a(cntr.c.obj)
 .bss           0x0000000000000000        0x0 zephyr/subsys/bluetooth/controller/libsubsys__bluetooth__controller.a(cntr.c.obj)
 .text          0x0000000000000000        0x0 zephyr/subsys/bluetooth/controller/libsubsys__bluetooth__controller.a(ecb.c.obj)
 .data          0x0000000000000000        0x0 zephyr/subsys/bluetooth/controller/libsubsys__bluetooth__controller.a(ecb.c.obj)
 .bss           0x0000000000000000        0x0 zephyr/subsys/bluetooth/controller/libsubsys__bluetooth__controller.a(ecb.c.obj)
 .text.ecb_cb   0x0000000000000000       0x16 zephyr/subsys/bluetooth/controller/libsubsys__bluetooth__controller.a(ecb.c.obj)
 .text.ecb_encrypt_be
                0x0000000000000000       0x32 zephyr/subsys/bluetooth/controller/libsubsys__bluetooth__controller.a(ecb.c.obj)
 .text.ecb_encrypt_nonblocking
                0x0000000000000000       0x50 zephyr/subsys/bluetooth/controller/libsubsys__bluetooth__controller.a(ecb.c.obj)
 .text.isr_ecb  0x0000000000000000       0x5c zephyr/subsys/bluetooth/controller/libsubsys__bluetooth__controller.a(ecb.c.obj)
 .text.ecb_ut   0x0000000000000000       0x80 zephyr/subsys/bluetooth/controller/libsubsys__bluetooth__controller.a(ecb.c.obj)
 .rodata        0x0000000000000000       0x10 zephyr/subsys/bluetooth/controller/libsubsys__bluetooth__controller.a(ecb.c.obj)
 .rodata.isr_ecb.str1.1
                0x0000000000000000       0x3d zephyr/subsys/bluetooth/controller/libsubsys__bluetooth__controller.a(ecb.c.obj)
 .text          0x0000000000000000        0x0 zephyr/subsys/bluetooth/controller/libsubsys__bluetooth__controller.a(radio.c.obj)
 .data          0x0000000000000000        0x0 zephyr/subsys/bluetooth/controller/libsubsys__bluetooth__controller.a(radio.c.obj)
 .bss           0x0000000000000000        0x0 zephyr/subsys/bluetooth/controller/libsubsys__bluetooth__controller.a(radio.c.obj)
 .text.radio_has_disabled
                0x0000000000000000       0x14 zephyr/subsys/bluetooth/controller/libsubsys__bluetooth__controller.a(radio.c.obj)
 .text.radio_bc_status_reset
                0x0000000000000000       0x10 zephyr/subsys/bluetooth/controller/libsubsys__bluetooth__controller.a(radio.c.obj)
 .text.radio_bc_has_match
                0x0000000000000000       0x14 zephyr/subsys/bluetooth/controller/libsubsys__bluetooth__controller.a(radio.c.obj)
 .text.radio_tmr_start_now
                0x0000000000000000       0x2c zephyr/subsys/bluetooth/controller/libsubsys__bluetooth__controller.a(radio.c.obj)
 .text          0x0000000000000000        0x0 zephyr/subsys/bluetooth/controller/libsubsys__bluetooth__controller.a(mayfly.c.obj)
 .data          0x0000000000000000        0x0 zephyr/subsys/bluetooth/controller/libsubsys__bluetooth__controller.a(mayfly.c.obj)
 .bss           0x0000000000000000        0x0 zephyr/subsys/bluetooth/controller/libsubsys__bluetooth__controller.a(mayfly.c.obj)
 .text          0x0000000000000000        0x0 zephyr/subsys/bluetooth/controller/libsubsys__bluetooth__controller.a(ticker.c.obj)
 .data          0x0000000000000000        0x0 zephyr/subsys/bluetooth/controller/libsubsys__bluetooth__controller.a(ticker.c.obj)
 .bss           0x0000000000000000        0x0 zephyr/subsys/bluetooth/controller/libsubsys__bluetooth__controller.a(ticker.c.obj)
 .text          0x0000000000000000        0x0 zephyr/subsys/net/libsubsys__net.a(buf.c.obj)
 .data          0x0000000000000000        0x0 zephyr/subsys/net/libsubsys__net.a(buf.c.obj)
 .bss           0x0000000000000000        0x0 zephyr/subsys/net/libsubsys__net.a(buf.c.obj)
 .text.generic_data_ref
                0x0000000000000000        0xe zephyr/subsys/net/libsubsys__net.a(buf.c.obj)
 .text.mem_pool_data_alloc
                0x0000000000000000       0x40 zephyr/subsys/net/libsubsys__net.a(buf.c.obj)
 .text.mem_pool_data_unref
                0x0000000000000000       0x28 zephyr/subsys/net/libsubsys__net.a(buf.c.obj)
 .text.net_buf_pool_get
                0x0000000000000000        0xc zephyr/subsys/net/libsubsys__net.a(buf.c.obj)
 .text.net_buf_reset
                0x0000000000000000        0xa zephyr/subsys/net/libsubsys__net.a(buf.c.obj)
 .text.net_buf_alloc_with_data
                0x0000000000000000       0x20 zephyr/subsys/net/libsubsys__net.a(buf.c.obj)
 .text.net_buf_simple_reserve
                0x0000000000000000        0x8 zephyr/subsys/net/libsubsys__net.a(buf.c.obj)
 .text.net_buf_slist_put
                0x0000000000000000       0x32 zephyr/subsys/net/libsubsys__net.a(buf.c.obj)
 .text.net_buf_slist_get
                0x0000000000000000       0x62 zephyr/subsys/net/libsubsys__net.a(buf.c.obj)
 .text.net_buf_ref
                0x0000000000000000        0x8 zephyr/subsys/net/libsubsys__net.a(buf.c.obj)
 .text.net_buf_frag_last
                0x0000000000000000        0xa zephyr/subsys/net/libsubsys__net.a(buf.c.obj)
 .text.net_buf_frag_insert
                0x0000000000000000       0x16 zephyr/subsys/net/libsubsys__net.a(buf.c.obj)
 .text.net_buf_frag_add
                0x0000000000000000       0x20 zephyr/subsys/net/libsubsys__net.a(buf.c.obj)
 .text.net_buf_frag_del
                0x0000000000000000       0x18 zephyr/subsys/net/libsubsys__net.a(buf.c.obj)
 .text.net_buf_clone
                0x0000000000000000       0xcc zephyr/subsys/net/libsubsys__net.a(buf.c.obj)
 .text.net_buf_simple_add_u8
                0x0000000000000000       0x10 zephyr/subsys/net/libsubsys__net.a(buf.c.obj)
 .text.net_buf_simple_add_le16
                0x0000000000000000       0x1e zephyr/subsys/net/libsubsys__net.a(buf.c.obj)
 .text.net_buf_simple_add_be16
                0x0000000000000000       0x22 zephyr/subsys/net/libsubsys__net.a(buf.c.obj)
 .text.net_buf_simple_add_le32
                0x0000000000000000       0x1e zephyr/subsys/net/libsubsys__net.a(buf.c.obj)
 .text.net_buf_simple_add_be32
                0x0000000000000000       0x1e zephyr/subsys/net/libsubsys__net.a(buf.c.obj)
 .text.net_buf_simple_push
                0x0000000000000000       0x10 zephyr/subsys/net/libsubsys__net.a(buf.c.obj)
 .text.net_buf_simple_push_le16
                0x0000000000000000       0x22 zephyr/subsys/net/libsubsys__net.a(buf.c.obj)
 .text.net_buf_simple_push_be16
                0x0000000000000000       0x28 zephyr/subsys/net/libsubsys__net.a(buf.c.obj)
 .text.net_buf_simple_push_u8
                0x0000000000000000       0x12 zephyr/subsys/net/libsubsys__net.a(buf.c.obj)
 .text.net_buf_simple_pull_le16
                0x0000000000000000       0x10 zephyr/subsys/net/libsubsys__net.a(buf.c.obj)
 .text.net_buf_simple_pull_be16
                0x0000000000000000       0x16 zephyr/subsys/net/libsubsys__net.a(buf.c.obj)
 .text.net_buf_simple_pull_le32
                0x0000000000000000       0x10 zephyr/subsys/net/libsubsys__net.a(buf.c.obj)
 .text.net_buf_simple_pull_be32
                0x0000000000000000       0x24 zephyr/subsys/net/libsubsys__net.a(buf.c.obj)
 .text.net_buf_simple_headroom
                0x0000000000000000        0x8 zephyr/subsys/net/libsubsys__net.a(buf.c.obj)
 .rodata.net_buf_var_cb
                0x0000000000000000        0xc zephyr/subsys/net/libsubsys__net.a(buf.c.obj)
 .text          0x0000000000000000        0x0 zephyr/kernel/libkernel.a(device.c.obj)
 .data          0x0000000000000000        0x0 zephyr/kernel/libkernel.a(device.c.obj)
 .bss           0x0000000000000000        0x0 zephyr/kernel/libkernel.a(device.c.obj)
 .text.device_busy_set
                0x0000000000000000        0x2 zephyr/kernel/libkernel.a(device.c.obj)
 .text.device_busy_clear
                0x0000000000000000        0x2 zephyr/kernel/libkernel.a(device.c.obj)
 .text          0x0000000000000000        0x0 zephyr/kernel/libkernel.a(errno.c.obj)
 .data          0x0000000000000000        0x0 zephyr/kernel/libkernel.a(errno.c.obj)
 .bss           0x0000000000000000        0x0 zephyr/kernel/libkernel.a(errno.c.obj)
 .text.__errno  0x0000000000000000        0xc zephyr/kernel/libkernel.a(errno.c.obj)
 .text          0x0000000000000000        0x0 zephyr/kernel/libkernel.a(idle.c.obj)
 .data          0x0000000000000000        0x0 zephyr/kernel/libkernel.a(idle.c.obj)
 .bss           0x0000000000000000        0x0 zephyr/kernel/libkernel.a(idle.c.obj)
 .text._sys_soc_resume
                0x0000000000000000        0x2 zephyr/kernel/libkernel.a(idle.c.obj)
 .text._sys_soc_resume_from_deep_sleep
                0x0000000000000000        0x2 zephyr/kernel/libkernel.a(idle.c.obj)
 COMMON         0x0000000000000000        0x1 zephyr/kernel/libkernel.a(idle.c.obj)
 .text          0x0000000000000000        0x0 zephyr/kernel/libkernel.a(init.c.obj)
 .data          0x0000000000000000        0x0 zephyr/kernel/libkernel.a(init.c.obj)
 .bss           0x0000000000000000        0x0 zephyr/kernel/libkernel.a(init.c.obj)
 .text.k_call_stacks_analyze
                0x0000000000000000        0x2 zephyr/kernel/libkernel.a(init.c.obj)
 .text.main     0x0000000000000000        0x2 zephyr/kernel/libkernel.a(init.c.obj)
 .rodata._main_thread
                0x0000000000000000        0x4 zephyr/kernel/libkernel.a(init.c.obj)
 .rodata.build_timestamp
                0x0000000000000000        0x4 zephyr/kernel/libkernel.a(init.c.obj)
 .rodata.str1.1
                0x0000000000000000       0x1c zephyr/kernel/libkernel.a(init.c.obj)
 .text          0x0000000000000000        0x0 zephyr/kernel/libkernel.a(mempool.c.obj)
 .data          0x0000000000000000        0x0 zephyr/kernel/libkernel.a(mempool.c.obj)
 .bss           0x0000000000000000        0x0 zephyr/kernel/libkernel.a(mempool.c.obj)
 .text.clear_free_bit
                0x0000000000000000       0x1e zephyr/kernel/libkernel.a(mempool.c.obj)
 .text.k_mem_pool_alloc
                0x0000000000000000      0x248 zephyr/kernel/libkernel.a(mempool.c.obj)
 .text.k_mem_pool_free_id
                0x0000000000000000      0x210 zephyr/kernel/libkernel.a(mempool.c.obj)
 .text.k_mem_pool_free
                0x0000000000000000        0x6 zephyr/kernel/libkernel.a(mempool.c.obj)
 .text          0x0000000000000000        0x0 zephyr/kernel/libkernel.a(queue.c.obj)
 .data          0x0000000000000000        0x0 zephyr/kernel/libkernel.a(queue.c.obj)
 .bss           0x0000000000000000        0x0 zephyr/kernel/libkernel.a(queue.c.obj)
 .text.k_queue_cancel_wait
                0x0000000000000000       0x2c zephyr/kernel/libkernel.a(queue.c.obj)
 .text.k_queue_merge_slist
                0x0000000000000000       0x12 zephyr/kernel/libkernel.a(queue.c.obj)
 .text          0x0000000000000000        0x0 zephyr/kernel/libkernel.a(sched.c.obj)
 .data          0x0000000000000000        0x0 zephyr/kernel/libkernel.a(sched.c.obj)
 .bss           0x0000000000000000        0x0 zephyr/kernel/libkernel.a(sched.c.obj)
 .text.k_sched_lock
                0x0000000000000000       0x10 zephyr/kernel/libkernel.a(sched.c.obj)
 .text._impl_k_thread_priority_get
                0x0000000000000000        0x6 zephyr/kernel/libkernel.a(sched.c.obj)
 .text._impl_k_thread_priority_set
                0x0000000000000000       0x36 zephyr/kernel/libkernel.a(sched.c.obj)
 .text._impl_k_sleep
                0x0000000000000000       0x50 zephyr/kernel/libkernel.a(sched.c.obj)
 .text._impl_k_wakeup
                0x0000000000000000       0x6c zephyr/kernel/libkernel.a(sched.c.obj)
 .text.k_sched_time_slice_set
                0x0000000000000000       0x1c zephyr/kernel/libkernel.a(sched.c.obj)
 .text._impl_k_is_preempt_thread
                0x0000000000000000       0x34 zephyr/kernel/libkernel.a(sched.c.obj)
 .text          0x0000000000000000        0x0 zephyr/kernel/libkernel.a(sem.c.obj)
 .data          0x0000000000000000        0x0 zephyr/kernel/libkernel.a(sem.c.obj)
 .bss           0x0000000000000000        0x0 zephyr/kernel/libkernel.a(sem.c.obj)
 .text._sem_give_non_preemptible
                0x0000000000000000       0x1e zephyr/kernel/libkernel.a(sem.c.obj)
 .text          0x0000000000000000        0x0 zephyr/kernel/libkernel.a(sys_clock.c.obj)
 .data          0x0000000000000000        0x0 zephyr/kernel/libkernel.a(sys_clock.c.obj)
 .bss           0x0000000000000000        0x0 zephyr/kernel/libkernel.a(sys_clock.c.obj)
 .text._tick_get_32
                0x0000000000000000        0xc zephyr/kernel/libkernel.a(sys_clock.c.obj)
 .text.k_uptime_delta
                0x0000000000000000       0x18 zephyr/kernel/libkernel.a(sys_clock.c.obj)
 .text.k_uptime_delta_32
                0x0000000000000000        0x8 zephyr/kernel/libkernel.a(sys_clock.c.obj)
 .text          0x0000000000000000        0x0 zephyr/kernel/libkernel.a(system_work_q.c.obj)
 .data          0x0000000000000000        0x0 zephyr/kernel/libkernel.a(system_work_q.c.obj)
 .bss           0x0000000000000000        0x0 zephyr/kernel/libkernel.a(system_work_q.c.obj)
 .text          0x0000000000000000        0x0 zephyr/kernel/libkernel.a(thread.c.obj)
 .data          0x0000000000000000        0x0 zephyr/kernel/libkernel.a(thread.c.obj)
 .bss           0x0000000000000000        0x0 zephyr/kernel/libkernel.a(thread.c.obj)
 .text._thread_essential_set
                0x0000000000000000       0x14 zephyr/kernel/libkernel.a(thread.c.obj)
 .text._thread_essential_clear
                0x0000000000000000       0x14 zephyr/kernel/libkernel.a(thread.c.obj)
 .text.k_busy_wait
                0x0000000000000000       0x28 zephyr/kernel/libkernel.a(thread.c.obj)
 .text._impl_k_thread_cancel
                0x0000000000000000       0x32 zephyr/kernel/libkernel.a(thread.c.obj)
 .text._k_thread_single_suspend
                0x0000000000000000       0x1a zephyr/kernel/libkernel.a(thread.c.obj)
 .text._impl_k_thread_suspend
                0x0000000000000000       0x34 zephyr/kernel/libkernel.a(thread.c.obj)
 .text._k_thread_single_resume
                0x0000000000000000       0x1e zephyr/kernel/libkernel.a(thread.c.obj)
 .text._impl_k_thread_resume
                0x0000000000000000       0x1c zephyr/kernel/libkernel.a(thread.c.obj)
 .text.k_thread_access_grant
                0x0000000000000000        0x6 zephyr/kernel/libkernel.a(thread.c.obj)
 .text.k_thread_user_mode_enter
                0x0000000000000000       0x24 zephyr/kernel/libkernel.a(thread.c.obj)
 .text          0x0000000000000000        0x0 zephyr/kernel/libkernel.a(work_q.c.obj)
 .data          0x0000000000000000        0x0 zephyr/kernel/libkernel.a(work_q.c.obj)
 .bss           0x0000000000000000        0x0 zephyr/kernel/libkernel.a(work_q.c.obj)
 .text          0x0000000000000000        0x0 zephyr/kernel/libkernel.a(timer.c.obj)
 .data          0x0000000000000000        0x0 zephyr/kernel/libkernel.a(timer.c.obj)
 .bss           0x0000000000000000        0x0 zephyr/kernel/libkernel.a(timer.c.obj)
 .text._abort_timeout
                0x0000000000000000       0x34 zephyr/kernel/libkernel.a(timer.c.obj)
 .text.k_timer_init
                0x0000000000000000       0x28 zephyr/kernel/libkernel.a(timer.c.obj)
 .text._impl_k_timer_start
                0x0000000000000000       0x48 zephyr/kernel/libkernel.a(timer.c.obj)
 .text._impl_k_timer_stop
                0x0000000000000000       0x98 zephyr/kernel/libkernel.a(timer.c.obj)
 .text._impl_k_timer_status_get
                0x0000000000000000       0x1a zephyr/kernel/libkernel.a(timer.c.obj)
 .text._impl_k_timer_status_sync
                0x0000000000000000       0x48 zephyr/kernel/libkernel.a(timer.c.obj)
 .text._timeout_remaining_get
                0x0000000000000000       0x50 zephyr/kernel/libkernel.a(timer.c.obj)
 .text          0x0000000000000000        0x0 zephyr/kernel/libkernel.a(poll.c.obj)
 .data          0x0000000000000000        0x0 zephyr/kernel/libkernel.a(poll.c.obj)
 .bss           0x0000000000000000        0x0 zephyr/kernel/libkernel.a(poll.c.obj)
 .text.k_poll_signal_init
                0x0000000000000000        0xa zephyr/kernel/libkernel.a(poll.c.obj)
 .text          0x0000000000000000        0x0 zephyr/CMakeFiles/offsets.dir/arch/arm/core/offsets/offsets.c.obj
 .data          0x0000000000000000        0x0 zephyr/CMakeFiles/offsets.dir/arch/arm/core/offsets/offsets.c.obj
 .bss           0x0000000000000000        0x0 zephyr/CMakeFiles/offsets.dir/arch/arm/core/offsets/offsets.c.obj
 .text          0x0000000000000000       0x18 /home/swap/directory/sysroots/armv5-zephyr-eabi/usr/lib/arm-zephyr-eabi/6.2.0/armv7e-m/libgcc.a(_lshrdi3.o)
 .data          0x0000000000000000        0x0 /home/swap/directory/sysroots/armv5-zephyr-eabi/usr/lib/arm-zephyr-eabi/6.2.0/armv7e-m/libgcc.a(_lshrdi3.o)
 .bss           0x0000000000000000        0x0 /home/swap/directory/sysroots/armv5-zephyr-eabi/usr/lib/arm-zephyr-eabi/6.2.0/armv7e-m/libgcc.a(_lshrdi3.o)
 .debug_line    0x0000000000000000       0x94 /home/swap/directory/sysroots/armv5-zephyr-eabi/usr/lib/arm-zephyr-eabi/6.2.0/armv7e-m/libgcc.a(_lshrdi3.o)
 .debug_info    0x0000000000000000       0xe0 /home/swap/directory/sysroots/armv5-zephyr-eabi/usr/lib/arm-zephyr-eabi/6.2.0/armv7e-m/libgcc.a(_lshrdi3.o)
 .debug_abbrev  0x0000000000000000       0x14 /home/swap/directory/sysroots/armv5-zephyr-eabi/usr/lib/arm-zephyr-eabi/6.2.0/armv7e-m/libgcc.a(_lshrdi3.o)
 .debug_aranges
                0x0000000000000000       0x20 /home/swap/directory/sysroots/armv5-zephyr-eabi/usr/lib/arm-zephyr-eabi/6.2.0/armv7e-m/libgcc.a(_lshrdi3.o)
 .ARM.attributes
                0x0000000000000000       0x1e /home/swap/directory/sysroots/armv5-zephyr-eabi/usr/lib/arm-zephyr-eabi/6.2.0/armv7e-m/libgcc.a(_lshrdi3.o)
 .text          0x0000000000000000       0x18 /home/swap/directory/sysroots/armv5-zephyr-eabi/usr/lib/arm-zephyr-eabi/6.2.0/armv7e-m/libgcc.a(_ashldi3.o)
 .data          0x0000000000000000        0x0 /home/swap/directory/sysroots/armv5-zephyr-eabi/usr/lib/arm-zephyr-eabi/6.2.0/armv7e-m/libgcc.a(_ashldi3.o)
 .bss           0x0000000000000000        0x0 /home/swap/directory/sysroots/armv5-zephyr-eabi/usr/lib/arm-zephyr-eabi/6.2.0/armv7e-m/libgcc.a(_ashldi3.o)
 .debug_line    0x0000000000000000       0x94 /home/swap/directory/sysroots/armv5-zephyr-eabi/usr/lib/arm-zephyr-eabi/6.2.0/armv7e-m/libgcc.a(_ashldi3.o)
 .debug_info    0x0000000000000000       0xe0 /home/swap/directory/sysroots/armv5-zephyr-eabi/usr/lib/arm-zephyr-eabi/6.2.0/armv7e-m/libgcc.a(_ashldi3.o)
 .debug_abbrev  0x0000000000000000       0x14 /home/swap/directory/sysroots/armv5-zephyr-eabi/usr/lib/arm-zephyr-eabi/6.2.0/armv7e-m/libgcc.a(_ashldi3.o)
 .debug_aranges
                0x0000000000000000       0x20 /home/swap/directory/sysroots/armv5-zephyr-eabi/usr/lib/arm-zephyr-eabi/6.2.0/armv7e-m/libgcc.a(_ashldi3.o)
 .ARM.attributes
                0x0000000000000000       0x1e /home/swap/directory/sysroots/armv5-zephyr-eabi/usr/lib/arm-zephyr-eabi/6.2.0/armv7e-m/libgcc.a(_ashldi3.o)
 .data          0x0000000000000000        0x0 /home/swap/directory/sysroots/armv5-zephyr-eabi/usr/lib/arm-zephyr-eabi/6.2.0/armv7e-m/libgcc.a(_aeabi_uldivmod.o)
 .bss           0x0000000000000000        0x0 /home/swap/directory/sysroots/armv5-zephyr-eabi/usr/lib/arm-zephyr-eabi/6.2.0/armv7e-m/libgcc.a(_aeabi_uldivmod.o)
 .data          0x0000000000000000        0x0 /home/swap/directory/sysroots/armv5-zephyr-eabi/usr/lib/arm-zephyr-eabi/6.2.0/armv7e-m/libgcc.a(_popcountsi2.o)
 .bss           0x0000000000000000        0x0 /home/swap/directory/sysroots/armv5-zephyr-eabi/usr/lib/arm-zephyr-eabi/6.2.0/armv7e-m/libgcc.a(_popcountsi2.o)
 .data          0x0000000000000000        0x0 /home/swap/directory/sysroots/armv5-zephyr-eabi/usr/lib/arm-zephyr-eabi/6.2.0/armv7e-m/libgcc.a(_udivmoddi4.o)
 .bss           0x0000000000000000        0x0 /home/swap/directory/sysroots/armv5-zephyr-eabi/usr/lib/arm-zephyr-eabi/6.2.0/armv7e-m/libgcc.a(_udivmoddi4.o)
 .ARM.extab     0x0000000000000000        0x0 /home/swap/directory/sysroots/armv5-zephyr-eabi/usr/lib/arm-zephyr-eabi/6.2.0/armv7e-m/libgcc.a(_udivmoddi4.o)
 .data          0x0000000000000000        0x0 /home/swap/directory/sysroots/armv5-zephyr-eabi/usr/lib/arm-zephyr-eabi/6.2.0/armv7e-m/libgcc.a(_dvmd_tls.o)
 .bss           0x0000000000000000        0x0 /home/swap/directory/sysroots/armv5-zephyr-eabi/usr/lib/arm-zephyr-eabi/6.2.0/armv7e-m/libgcc.a(_dvmd_tls.o)

Memory Configuration

Name             Origin             Length             Attributes
FLASH            0x0000000000000000 0x0000000000100000 xr
SRAM             0x0000000020000000 0x0000000000040000 xw
IDT_LIST         0x0000000020040000 0x0000000000000800 xw
*default*        0x0000000000000000 0xffffffffffffffff

Linker script and memory map

LOAD zephyr/CMakeFiles/kernel_elf.dir/misc/empty_file.c.obj
LOAD zephyr/CMakeFiles/kernel_elf.dir/isr_tables.c.obj
START GROUP
LOAD libapp.a
LOAD zephyr/libzephyr.a
LOAD zephyr/subsys/bluetooth/common/libsubsys__bluetooth__common.a
LOAD zephyr/subsys/bluetooth/host/libsubsys__bluetooth__host.a
LOAD zephyr/subsys/bluetooth/controller/libsubsys__bluetooth__controller.a
LOAD zephyr/subsys/net/libsubsys__net.a
LOAD zephyr/kernel/libkernel.a
LOAD zephyr/CMakeFiles/offsets.dir/arch/arm/core/offsets/offsets.c.obj
END GROUP
LOAD /home/swap/directory/sysroots/armv5-zephyr-eabi/usr/lib/arm-zephyr-eabi/6.2.0/armv7e-m/libgcc.a
                0x0000000000000000                _image_rom_start = 0x0

text            0x0000000000000000    0x10650
                0x0000000000000000                . = 0x0
                0x0000000000000000                _vector_start = .
 *(.exc_vector_table)
 *(.exc_vector_table.*)
 .exc_vector_table._vector_table_section
                0x0000000000000000       0x40 zephyr/libzephyr.a(vector_table.S.obj)
                0x0000000000000000                _vector_table
 *(.gnu.linkonce.irq_vector_table)
 .gnu.linkonce.irq_vector_table
                0x0000000000000040       0xb8 zephyr/CMakeFiles/kernel_elf.dir/isr_tables.c.obj
                0x0000000000000040                _irq_vector_table
 *(.openocd_dbg)
 *(.openocd_dbg.*)
 *(.kinetis_flash_config)
 *(.kinetis_flash_config.*)
 *(.gnu.linkonce.sw_isr_table)
 .gnu.linkonce.sw_isr_table
                0x00000000000000f8      0x170 zephyr/CMakeFiles/kernel_elf.dir/isr_tables.c.obj
                0x00000000000000f8                _sw_isr_table
                0x0000000000000268                _vector_end = .
                0x0000000000000268                _image_text_start = .
 *(.text)
 .text          0x0000000000000268       0x30 /home/swap/directory/sysroots/armv5-zephyr-eabi/usr/lib/arm-zephyr-eabi/6.2.0/armv7e-m/libgcc.a(_aeabi_uldivmod.o)
                0x0000000000000268                __aeabi_uldivmod
 .text          0x0000000000000298       0x28 /home/swap/directory/sysroots/armv5-zephyr-eabi/usr/lib/arm-zephyr-eabi/6.2.0/armv7e-m/libgcc.a(_popcountsi2.o)
                0x0000000000000298                __popcountsi2
 .text          0x00000000000002c0      0x2dc /home/swap/directory/sysroots/armv5-zephyr-eabi/usr/lib/arm-zephyr-eabi/6.2.0/armv7e-m/libgcc.a(_udivmoddi4.o)
                0x00000000000002c0                __udivmoddi4
 .text          0x000000000000059c        0x4 /home/swap/directory/sysroots/armv5-zephyr-eabi/usr/lib/arm-zephyr-eabi/6.2.0/armv7e-m/libgcc.a(_dvmd_tls.o)
                0x000000000000059c                __aeabi_ldiv0
                0x000000000000059c                __aeabi_idiv0
 *(.text.*)
 .text.strcpy   0x00000000000005a0       0x14 libapp.a(string.c.obj)
                0x00000000000005a0                strcpy
 .text.strcmp   0x00000000000005b4       0x1a libapp.a(string.c.obj)
                0x00000000000005b4                strcmp
 .text.memcmp   0x00000000000005ce       0x2a libapp.a(string.c.obj)
                0x00000000000005ce                memcmp
 .text.memcpy   0x00000000000005f8       0x58 libapp.a(string.c.obj)
                0x00000000000005f8                memcpy
 .text.memset   0x0000000000000650       0x46 libapp.a(string.c.obj)
                0x0000000000000650                memset
 .text._impl_uart_irq_tx_disable
                0x0000000000000696        0xa libapp.a(main.c.obj)
 .text._impl_uart_irq_rx_disable
                0x00000000000006a0        0xa libapp.a(main.c.obj)
 .text.uart_poll_out
                0x00000000000006aa        0x6 libapp.a(main.c.obj)
 .text.tx_thread
                0x00000000000006b0       0x28 libapp.a(main.c.obj)
 .text.hci_uart_init
                0x00000000000006d8       0x48 libapp.a(main.c.obj)
 .text.h4_read  0x0000000000000720       0x34 libapp.a(main.c.obj)
 .text.bt_uart_isr
                0x0000000000000754      0x15c libapp.a(main.c.obj)
 .text.bt_ctlr_assert_handle
                0x00000000000008b0       0xa4 libapp.a(main.c.obj)
                0x00000000000008b0                bt_ctlr_assert_handle
 .text.main     0x0000000000000954       0x8c libapp.a(main.c.obj)
                0x0000000000000954                main
 .text.errata_136_nrf52840
                0x00000000000009e0       0x20 zephyr/libzephyr.a(soc.c.obj)
 .text.nordicsemi_nrf52_init
                0x0000000000000a00      0x13c zephyr/libzephyr.a(soc.c.obj)
 .text._HandlerModeExit
                0x0000000000000b3c       0x2c zephyr/libzephyr.a(exc_exit.S.obj)
                0x0000000000000b3c                _ExcExit
                0x0000000000000b3c                _IntExit
 .text._IntLibInit
                0x0000000000000b68       0x18 zephyr/libzephyr.a(irq_init.c.obj)
                0x0000000000000b68                _IntLibInit
 .text.__swap   0x0000000000000b80       0x30 zephyr/libzephyr.a(swap.c.obj)
                0x0000000000000b80                __swap
 .text.__pendsv
                0x0000000000000bb0       0x44 zephyr/libzephyr.a(swap_helper.S.obj)
                0x0000000000000bb0                __pendsv
 .text.__svc    0x0000000000000bf4       0x3c zephyr/libzephyr.a(swap_helper.S.obj)
                0x0000000000000bf4                __svc
 .text._MpuFault.isra.1
                0x0000000000000c30       0x34 zephyr/libzephyr.a(fault.c.obj)
 .text._BusFault.isra.3
                0x0000000000000c64       0x3c zephyr/libzephyr.a(fault.c.obj)
 .text._UsageFault.isra.5
                0x0000000000000ca0       0x20 zephyr/libzephyr.a(fault.c.obj)
 .text._Fault   0x0000000000000cc0       0x74 zephyr/libzephyr.a(fault.c.obj)
                0x0000000000000cc0                _Fault
 .text._FaultInit
                0x0000000000000d34       0x10 zephyr/libzephyr.a(fault.c.obj)
                0x0000000000000d34                _FaultInit
 .text._arch_irq_enable
                0x0000000000000d44       0x20 zephyr/libzephyr.a(irq_manage.c.obj)
                0x0000000000000d44                _arch_irq_enable
 .text._arch_irq_disable
                0x0000000000000d64       0x28 zephyr/libzephyr.a(irq_manage.c.obj)
                0x0000000000000d64                _arch_irq_disable
 .text._arch_irq_is_enabled
                0x0000000000000d8c       0x1c zephyr/libzephyr.a(irq_manage.c.obj)
                0x0000000000000d8c                _arch_irq_is_enabled
 .text._irq_priority_set
                0x0000000000000da8       0x30 zephyr/libzephyr.a(irq_manage.c.obj)
                0x0000000000000da8                _irq_priority_set
 .text._irq_spurious
                0x0000000000000dd8        0x4 zephyr/libzephyr.a(irq_manage.c.obj)
                0x0000000000000dd8                _irq_spurious
 .text._arch_isr_direct_pm
                0x0000000000000ddc       0x1c zephyr/libzephyr.a(irq_manage.c.obj)
                0x0000000000000ddc                _arch_isr_direct_pm
 .text._new_thread
                0x0000000000000df8       0x50 zephyr/libzephyr.a(thread.c.obj)
                0x0000000000000df8                _new_thread
 .text._CpuIdleInit
                0x0000000000000e48        0xc zephyr/libzephyr.a(cpu_idle.S.obj)
                0x0000000000000e48                _CpuIdleInit
 .text.k_cpu_idle
                0x0000000000000e54        0xc zephyr/libzephyr.a(cpu_idle.S.obj)
                0x0000000000000e54                k_cpu_idle
 .text.__fault  0x0000000000000e60       0x28 zephyr/libzephyr.a(fault_s.S.obj)
                0x0000000000000e60                __usage_fault
                0x0000000000000e60                __reserved
                0x0000000000000e60                __bus_fault
                0x0000000000000e60                __debug_monitor
                0x0000000000000e60                __mpu_fault
                0x0000000000000e60                __hard_fault
 .text._NanoFatalErrorHandler
                0x0000000000000e88       0x16 zephyr/libzephyr.a(fatal.c.obj)
                0x0000000000000e88                _NanoFatalErrorHandler
 .text._do_kernel_oops
                0x0000000000000e9e        0x8 zephyr/libzephyr.a(fatal.c.obj)
                0x0000000000000e9e                _do_kernel_oops
 *fill*         0x0000000000000ea6        0x2 
 .text._SysFatalErrorHandler
                0x0000000000000ea8       0x30 zephyr/libzephyr.a(sys_fatal_error_handler.c.obj)
                0x0000000000000ea8                _SysFatalErrorHandler
 .text._impl_k_thread_abort
                0x0000000000000ed8       0x4c zephyr/libzephyr.a(thread_abort.c.obj)
                0x0000000000000ed8                _impl_k_thread_abort
 .text._isr_wrapper
                0x0000000000000f24       0x3c zephyr/libzephyr.a(isr_wrapper.S.obj)
                0x0000000000000f24                _isr_wrapper
 .text._reset_section
                0x0000000000000f60       0x20 zephyr/libzephyr.a(reset.S.obj)
                0x0000000000000f60                __reset
                0x0000000000000f60                __start
 .text._SysNmiOnReset
                0x0000000000000f80        0x8 zephyr/libzephyr.a(nmi_on_reset.S.obj)
                0x0000000000000f80                _SysNmiOnReset
 .text._PrepC   0x0000000000000f88       0x28 zephyr/libzephyr.a(prep_c.c.obj)
                0x0000000000000f88                _PrepC
 .text.__nmi    0x0000000000000fb0        0xe zephyr/libzephyr.a(nmi.c.obj)
                0x0000000000000fb0                __nmi
 *fill*         0x0000000000000fbe        0x2 
 .text.arm_mpu_init
                0x0000000000000fc0       0x64 zephyr/libzephyr.a(arm_mpu.c.obj)
 .text._ConfigAbsSyms
                0x0000000000001024        0x2 zephyr/libzephyr.a(configs.c.obj)
                0x0000000000001024                _ConfigAbsSyms
 *fill*         0x0000000000001026        0x2 
 .text.sys_rand32_get
                0x0000000000001028       0x50 zephyr/libzephyr.a(rand32_entropy_device.c.obj)
                0x0000000000001028                sys_rand32_get
 .text._m16src_stop
                0x0000000000001078       0x5c zephyr/libzephyr.a(nrf5_power_clock.c.obj)
 .text._clock_control_init
                0x00000000000010d4       0x16 zephyr/libzephyr.a(nrf5_power_clock.c.obj)
 *fill*         0x00000000000010ea        0x2 
 .text._m16src_start
                0x00000000000010ec       0xb0 zephyr/libzephyr.a(nrf5_power_clock.c.obj)
 .text._k32src_start
                0x000000000000119c       0xcc zephyr/libzephyr.a(nrf5_power_clock.c.obj)
 .text._power_clock_isr
                0x0000000000001268       0x9c zephyr/libzephyr.a(nrf5_power_clock.c.obj)
 .text.gpiote_find_channel
                0x0000000000001304       0x32 zephyr/libzephyr.a(gpio_nrf5.c.obj)
 .text.gpio_nrf5_read
                0x0000000000001336       0x20 zephyr/libzephyr.a(gpio_nrf5.c.obj)
 .text.gpio_nrf5_write
                0x0000000000001356       0x22 zephyr/libzephyr.a(gpio_nrf5.c.obj)
 .text.gpio_nrf5_manage_callback
                0x0000000000001378       0x44 zephyr/libzephyr.a(gpio_nrf5.c.obj)
 .text.gpio_nrf5_enable_callback
                0x00000000000013bc       0x40 zephyr/libzephyr.a(gpio_nrf5.c.obj)
 .text.gpio_nrf5_disable_callback
                0x00000000000013fc       0x3a zephyr/libzephyr.a(gpio_nrf5.c.obj)
 .text.gpio_nrf5_P0_init
                0x0000000000001436       0x16 zephyr/libzephyr.a(gpio_nrf5.c.obj)
 .text.gpio_nrf5_port_isr
                0x000000000000144c       0x64 zephyr/libzephyr.a(gpio_nrf5.c.obj)
 .text.gpio_nrf5_config
                0x00000000000014b0      0x118 zephyr/libzephyr.a(gpio_nrf5.c.obj)
 .text.uart_nrf5_poll_in
                0x00000000000015c8       0x20 zephyr/libzephyr.a(uart_nrf5.c.obj)
 .text.uart_nrf5_poll_out
                0x00000000000015e8       0x1c zephyr/libzephyr.a(uart_nrf5.c.obj)
 .text.uart_nrf5_err_check
                0x0000000000001604       0x1a zephyr/libzephyr.a(uart_nrf5.c.obj)
 .text.uart_nrf5_fifo_fill
                0x000000000000161e       0x2a zephyr/libzephyr.a(uart_nrf5.c.obj)
 .text.uart_nrf5_fifo_read
                0x0000000000001648       0x2a zephyr/libzephyr.a(uart_nrf5.c.obj)
 .text.uart_nrf5_irq_tx_enable
                0x0000000000001672       0x14 zephyr/libzephyr.a(uart_nrf5.c.obj)
 .text.uart_nrf5_irq_tx_disable
                0x0000000000001686       0x14 zephyr/libzephyr.a(uart_nrf5.c.obj)
 .text.uart_nrf5_irq_tx_ready
                0x000000000000169a        0xc zephyr/libzephyr.a(uart_nrf5.c.obj)
 .text.uart_nrf5_irq_rx_enable
                0x00000000000016a6       0x14 zephyr/libzephyr.a(uart_nrf5.c.obj)
 .text.uart_nrf5_irq_rx_disable
                0x00000000000016ba       0x14 zephyr/libzephyr.a(uart_nrf5.c.obj)
 .text.uart_nrf5_irq_tx_complete
                0x00000000000016ce       0x12 zephyr/libzephyr.a(uart_nrf5.c.obj)
 .text.uart_nrf5_irq_rx_ready
                0x00000000000016e0        0xc zephyr/libzephyr.a(uart_nrf5.c.obj)
 .text.uart_nrf5_irq_err_enable
                0x00000000000016ec       0x14 zephyr/libzephyr.a(uart_nrf5.c.obj)
 .text.uart_nrf5_irq_err_disable
                0x0000000000001700       0x14 zephyr/libzephyr.a(uart_nrf5.c.obj)
 .text.uart_nrf5_irq_update
                0x0000000000001714        0x4 zephyr/libzephyr.a(uart_nrf5.c.obj)
 .text.uart_nrf5_irq_callback_set
                0x0000000000001718        0x6 zephyr/libzephyr.a(uart_nrf5.c.obj)
 .text.uart_nrf5_isr
                0x000000000000171e        0xa zephyr/libzephyr.a(uart_nrf5.c.obj)
                0x000000000000171e                uart_nrf5_isr
 .text.uart_nrf5_irq_config
                0x0000000000001728       0x16 zephyr/libzephyr.a(uart_nrf5.c.obj)
 .text.uart_nrf5_irq_is_pending
                0x000000000000173e       0x1c zephyr/libzephyr.a(uart_nrf5.c.obj)
 .text.gpio_pin_configure
                0x000000000000175a       0x12 zephyr/libzephyr.a(uart_nrf5.c.obj)
 .text.uart_nrf5_init
                0x000000000000176c       0x9c zephyr/libzephyr.a(uart_nrf5.c.obj)
 .text.get      0x0000000000001808       0xc4 zephyr/libzephyr.a(entropy_nrf5.c.obj)
 .text.isr      0x00000000000018cc       0x48 zephyr/libzephyr.a(entropy_nrf5.c.obj)
 .text.entropy_nrf5_init
                0x0000000000001914       0x74 zephyr/libzephyr.a(entropy_nrf5.c.obj)
 .text.isr_rand
                0x0000000000001988       0x50 zephyr/libzephyr.a(entropy_nrf5.c.obj)
 .text.entropy_nrf5_get_entropy
                0x00000000000019d8       0x54 zephyr/libzephyr.a(entropy_nrf5.c.obj)
 .text.entropy_get_entropy_isr
                0x0000000000001a2c       0x10 zephyr/libzephyr.a(entropy_nrf5.c.obj)
                0x0000000000001a2c                entropy_get_entropy_isr
 .text.rtc_compare_set
                0x0000000000001a3c       0x30 zephyr/libzephyr.a(nrf_rtc_timer.c.obj)
 .text.rtc_announce_set_next
                0x0000000000001a6c       0x5c zephyr/libzephyr.a(nrf_rtc_timer.c.obj)
 .text.rtc1_nrf5_isr
                0x0000000000001ac8       0x10 zephyr/libzephyr.a(nrf_rtc_timer.c.obj)
 .text._timer_idle_enter
                0x0000000000001ad8       0x28 zephyr/libzephyr.a(nrf_rtc_timer.c.obj)
                0x0000000000001ad8                _timer_idle_enter
 .text._timer_idle_exit
                0x0000000000001b00       0x2c zephyr/libzephyr.a(nrf_rtc_timer.c.obj)
                0x0000000000001b00                _timer_idle_exit
 .text._sys_clock_driver_init
                0x0000000000001b2c       0x78 zephyr/libzephyr.a(nrf_rtc_timer.c.obj)
                0x0000000000001b2c                _sys_clock_driver_init
 .text._timer_cycle_get_32
                0x0000000000001ba4       0x3c zephyr/libzephyr.a(nrf_rtc_timer.c.obj)
                0x0000000000001ba4                _timer_cycle_get_32
 .text.ah       0x0000000000001be0       0x3a zephyr/subsys/bluetooth/common/libsubsys__bluetooth__common.a(rpa.c.obj)
 .text.bt_rpa_irk_matches
                0x0000000000001c1a       0x26 zephyr/subsys/bluetooth/common/libsubsys__bluetooth__common.a(rpa.c.obj)
                0x0000000000001c1a                bt_rpa_irk_matches
 .text.bt_rpa_create
                0x0000000000001c40       0x2e zephyr/subsys/bluetooth/common/libsubsys__bluetooth__common.a(rpa.c.obj)
                0x0000000000001c40                bt_rpa_create
 *fill*         0x0000000000001c6e        0x2 
 .text.bt_hci_driver_register
                0x0000000000001c70       0x24 zephyr/subsys/bluetooth/host/libsubsys__bluetooth__host.a(hci_raw.c.obj)
                0x0000000000001c70                bt_hci_driver_register
 .text.bt_buf_get_rx
                0x0000000000001c94       0x14 zephyr/subsys/bluetooth/host/libsubsys__bluetooth__host.a(hci_raw.c.obj)
                0x0000000000001c94                bt_buf_get_rx
 .text.bt_buf_get_cmd_complete
                0x0000000000001ca8       0x18 zephyr/subsys/bluetooth/host/libsubsys__bluetooth__host.a(hci_raw.c.obj)
                0x0000000000001ca8                bt_buf_get_cmd_complete
 .text.bt_recv  0x0000000000001cc0       0x14 zephyr/subsys/bluetooth/host/libsubsys__bluetooth__host.a(hci_raw.c.obj)
                0x0000000000001cc0                bt_recv
 .text.bt_recv_prio
                0x0000000000001cd4        0x4 zephyr/subsys/bluetooth/host/libsubsys__bluetooth__host.a(hci_raw.c.obj)
                0x0000000000001cd4                bt_recv_prio
 .text.bt_send  0x0000000000001cd8        0xc zephyr/subsys/bluetooth/host/libsubsys__bluetooth__host.a(hci_raw.c.obj)
                0x0000000000001cd8                bt_send
 .text.bt_enable_raw
                0x0000000000001ce4       0x1c zephyr/subsys/bluetooth/host/libsubsys__bluetooth__host.a(hci_raw.c.obj)
                0x0000000000001ce4                bt_enable_raw
 .text.mem_init
                0x0000000000001d00       0x4e zephyr/subsys/bluetooth/controller/libsubsys__bluetooth__controller.a(mem.c.obj)
                0x0000000000001d00                mem_init
 .text.mem_acquire
                0x0000000000001d4e       0x34 zephyr/subsys/bluetooth/controller/libsubsys__bluetooth__controller.a(mem.c.obj)
                0x0000000000001d4e                mem_acquire
 .text.mem_release
                0x0000000000001d82       0x2a zephyr/subsys/bluetooth/controller/libsubsys__bluetooth__controller.a(mem.c.obj)
                0x0000000000001d82                mem_release
 .text.mem_free_count_get
                0x0000000000001dac        0xc zephyr/subsys/bluetooth/controller/libsubsys__bluetooth__controller.a(mem.c.obj)
                0x0000000000001dac                mem_free_count_get
 .text.mem_get  0x0000000000001db8        0x6 zephyr/subsys/bluetooth/controller/libsubsys__bluetooth__controller.a(mem.c.obj)
                0x0000000000001db8                mem_get
 .text.mem_index_get
                0x0000000000001dbe        0xa zephyr/subsys/bluetooth/controller/libsubsys__bluetooth__controller.a(mem.c.obj)
                0x0000000000001dbe                mem_index_get
 .text.mem_rcopy
                0x0000000000001dc8       0x1e zephyr/subsys/bluetooth/controller/libsubsys__bluetooth__controller.a(mem.c.obj)
                0x0000000000001dc8                mem_rcopy
 .text.mem_nz   0x0000000000001de6       0x16 zephyr/subsys/bluetooth/controller/libsubsys__bluetooth__controller.a(mem.c.obj)
                0x0000000000001de6                mem_nz
 .text.memq_init
                0x0000000000001dfc        0x6 zephyr/subsys/bluetooth/controller/libsubsys__bluetooth__controller.a(memq.c.obj)
                0x0000000000001dfc                memq_init
 .text.memq_enqueue
                0x0000000000001e02        0xe zephyr/subsys/bluetooth/controller/libsubsys__bluetooth__controller.a(memq.c.obj)
                0x0000000000001e02                memq_enqueue
 .text.memq_peek
                0x0000000000001e10       0x10 zephyr/subsys/bluetooth/controller/libsubsys__bluetooth__controller.a(memq.c.obj)
                0x0000000000001e10                memq_peek
 .text.memq_dequeue
                0x0000000000001e20       0x1e zephyr/subsys/bluetooth/controller/libsubsys__bluetooth__controller.a(memq.c.obj)
                0x0000000000001e20                memq_dequeue
 *fill*         0x0000000000001e3e        0x2 
 .text.mayfly_init
                0x0000000000001e40       0x54 zephyr/subsys/bluetooth/controller/libsubsys__bluetooth__controller.a(mayfly.c.obj)
                0x0000000000001e40                mayfly_init
 .text.mayfly_enable
                0x0000000000001e94       0x50 zephyr/subsys/bluetooth/controller/libsubsys__bluetooth__controller.a(mayfly.c.obj)
                0x0000000000001e94                mayfly_enable
 .text.mayfly_enqueue
                0x0000000000001ee4       0x9c zephyr/subsys/bluetooth/controller/libsubsys__bluetooth__controller.a(mayfly.c.obj)
                0x0000000000001ee4                mayfly_enqueue
 .text.mayfly_run
                0x0000000000001f80      0x124 zephyr/subsys/bluetooth/controller/libsubsys__bluetooth__controller.a(mayfly.c.obj)
                0x0000000000001f80                mayfly_run
 .text.util_ones_count_get
                0x00000000000020a4       0x22 zephyr/subsys/bluetooth/controller/libsubsys__bluetooth__controller.a(util.c.obj)
                0x00000000000020a4                util_ones_count_get
 .text.ticker_dequeue
                0x00000000000020c6       0x58 zephyr/subsys/bluetooth/controller/libsubsys__bluetooth__controller.a(ticker.c.obj)
 .text.ticks_to_expire_prep
                0x000000000000211e       0x3c zephyr/subsys/bluetooth/controller/libsubsys__bluetooth__controller.a(ticker.c.obj)
 .text.ticker_job_op_cb
                0x000000000000215a       0x14 zephyr/subsys/bluetooth/controller/libsubsys__bluetooth__controller.a(ticker.c.obj)
 .text.ticker_worker
                0x000000000000216e       0xae zephyr/subsys/bluetooth/controller/libsubsys__bluetooth__controller.a(ticker.c.obj)
                0x000000000000216e                ticker_worker
 .text.ticker_job
                0x000000000000221c      0x798 zephyr/subsys/bluetooth/controller/libsubsys__bluetooth__controller.a(ticker.c.obj)
                0x000000000000221c                ticker_job
 .text.ticker_init
                0x00000000000029b4       0x70 zephyr/subsys/bluetooth/controller/libsubsys__bluetooth__controller.a(ticker.c.obj)
                0x00000000000029b4                ticker_init
 .text.ticker_trigger
                0x0000000000002a24       0x24 zephyr/subsys/bluetooth/controller/libsubsys__bluetooth__controller.a(ticker.c.obj)
                0x0000000000002a24                ticker_trigger
 .text.ticker_start
                0x0000000000002a48       0xa0 zephyr/subsys/bluetooth/controller/libsubsys__bluetooth__controller.a(ticker.c.obj)
                0x0000000000002a48                ticker_start
 .text.ticker_update
                0x0000000000002ae8       0x9c zephyr/subsys/bluetooth/controller/libsubsys__bluetooth__controller.a(ticker.c.obj)
                0x0000000000002ae8                ticker_update
 .text.ticker_stop
                0x0000000000002b84       0x78 zephyr/subsys/bluetooth/controller/libsubsys__bluetooth__controller.a(ticker.c.obj)
                0x0000000000002b84                ticker_stop
 .text.ticker_next_slot_get
                0x0000000000002bfc       0x84 zephyr/subsys/bluetooth/controller/libsubsys__bluetooth__controller.a(ticker.c.obj)
                0x0000000000002bfc                ticker_next_slot_get
 .text.ticker_job_idle_get
                0x0000000000002c80       0x78 zephyr/subsys/bluetooth/controller/libsubsys__bluetooth__controller.a(ticker.c.obj)
                0x0000000000002c80                ticker_job_idle_get
 .text.ticker_job_sched
                0x0000000000002cf8       0x2c zephyr/subsys/bluetooth/controller/libsubsys__bluetooth__controller.a(ticker.c.obj)
                0x0000000000002cf8                ticker_job_sched
 .text.ticker_ticks_now_get
                0x0000000000002d24        0x4 zephyr/subsys/bluetooth/controller/libsubsys__bluetooth__controller.a(ticker.c.obj)
                0x0000000000002d24                ticker_ticks_now_get
 .text.ticker_ticks_diff_get
                0x0000000000002d28        0x8 zephyr/subsys/bluetooth/controller/libsubsys__bluetooth__controller.a(ticker.c.obj)
                0x0000000000002d28                ticker_ticks_diff_get
 .text.ll_addr_get
                0x0000000000002d30       0x34 zephyr/subsys/bluetooth/controller/libsubsys__bluetooth__controller.a(ll_addr.c.obj)
                0x0000000000002d30                ll_addr_get
 .text.ll_addr_set
                0x0000000000002d64       0x38 zephyr/subsys/bluetooth/controller/libsubsys__bluetooth__controller.a(ll_addr.c.obj)
                0x0000000000002d64                ll_addr_set
 .text.ll_tx_pwr_get
                0x0000000000002d9c        0x8 zephyr/subsys/bluetooth/controller/libsubsys__bluetooth__controller.a(ll_tx_pwr.c.obj)
                0x0000000000002d9c                ll_tx_pwr_get
 .text.bt_rand  0x0000000000002da4       0x38 zephyr/subsys/bluetooth/controller/libsubsys__bluetooth__controller.a(crypto.c.obj)
                0x0000000000002da4                bt_rand
 .text.bt_encrypt_le
                0x0000000000002ddc        0xc zephyr/subsys/bluetooth/controller/libsubsys__bluetooth__controller.a(crypto.c.obj)
                0x0000000000002ddc                bt_encrypt_le
 .text._hci_driver_init
                0x0000000000002de8       0x10 zephyr/subsys/bluetooth/controller/libsubsys__bluetooth__controller.a(hci_driver.c.obj)
 .text.hci_driver_send
                0x0000000000002df8       0x44 zephyr/subsys/bluetooth/controller/libsubsys__bluetooth__controller.a(hci_driver.c.obj)
 .text.encode_node
                0x0000000000002e3c       0x70 zephyr/subsys/bluetooth/controller/libsubsys__bluetooth__controller.a(hci_driver.c.obj)
 .text.prio_recv_thread
                0x0000000000002eac       0x5c zephyr/subsys/bluetooth/controller/libsubsys__bluetooth__controller.a(hci_driver.c.obj)
 .text.sys_slist_get.constprop.5
                0x0000000000002f08       0x18 zephyr/subsys/bluetooth/controller/libsubsys__bluetooth__controller.a(hci_driver.c.obj)
 .text.recv_thread
                0x0000000000002f20      0x1d4 zephyr/subsys/bluetooth/controller/libsubsys__bluetooth__controller.a(hci_driver.c.obj)
 .text.hci_driver_open
                0x00000000000030f4       0x78 zephyr/subsys/bluetooth/controller/libsubsys__bluetooth__controller.a(hci_driver.c.obj)
 .text.sys_put_le32
                0x000000000000316c       0x12 zephyr/subsys/bluetooth/controller/libsubsys__bluetooth__controller.a(hci.c.obj)
 .text.evt_create
                0x000000000000317e       0x14 zephyr/subsys/bluetooth/controller/libsubsys__bluetooth__controller.a(hci.c.obj)
 *fill*         0x0000000000003192        0x2 
 .text.cmd_status
                0x0000000000003194       0x34 zephyr/subsys/bluetooth/controller/libsubsys__bluetooth__controller.a(hci.c.obj)
 .text.meta_evt
                0x00000000000031c8       0x2a zephyr/subsys/bluetooth/controller/libsubsys__bluetooth__controller.a(hci.c.obj)
 *fill*         0x00000000000031f2        0x2 
 .text.cmd_complete
                0x00000000000031f4       0x44 zephyr/subsys/bluetooth/controller/libsubsys__bluetooth__controller.a(hci.c.obj)
 .text.le_advertising_report
                0x0000000000003238      0x240 zephyr/subsys/bluetooth/controller/libsubsys__bluetooth__controller.a(hci.c.obj)
 .text.encrypt_change
                0x0000000000003478       0x40 zephyr/subsys/bluetooth/controller/libsubsys__bluetooth__controller.a(hci.c.obj)
 .text.le_remote_feat_complete
                0x00000000000034b8       0x5c zephyr/subsys/bluetooth/controller/libsubsys__bluetooth__controller.a(hci.c.obj)
 .text.le_set_adv_param.isra.40
                0x0000000000003514       0x50 zephyr/subsys/bluetooth/controller/libsubsys__bluetooth__controller.a(hci.c.obj)
 .text.le_set_adv_enable.isra.43
                0x0000000000003564       0x20 zephyr/subsys/bluetooth/controller/libsubsys__bluetooth__controller.a(hci.c.obj)
 .text.le_conn_complete.part.47
                0x0000000000003584      0x12c zephyr/subsys/bluetooth/controller/libsubsys__bluetooth__controller.a(hci.c.obj)
 .text.bt_addr_le_to_str.isra.81
                0x00000000000036b0       0x3c zephyr/subsys/bluetooth/controller/libsubsys__bluetooth__controller.a(hci.c.obj)
 .text.le_adv_ext_report.isra.83
                0x00000000000036ec       0xd4 zephyr/subsys/bluetooth/controller/libsubsys__bluetooth__controller.a(hci.c.obj)
 .text.reset    0x00000000000037c0       0xb8 zephyr/subsys/bluetooth/controller/libsubsys__bluetooth__controller.a(hci.c.obj)
 .text.sys_get_le64
                0x0000000000003878        0x8 zephyr/subsys/bluetooth/controller/libsubsys__bluetooth__controller.a(hci.c.obj)
 .text.hci_cmd_handle
                0x0000000000003880      0xbf8 zephyr/subsys/bluetooth/controller/libsubsys__bluetooth__controller.a(hci.c.obj)
                0x0000000000003880                hci_cmd_handle
 .text.hci_acl_handle
                0x0000000000004478       0xbc zephyr/subsys/bluetooth/controller/libsubsys__bluetooth__controller.a(hci.c.obj)
                0x0000000000004478                hci_acl_handle
 .text.hci_acl_encode
                0x0000000000004534       0xb0 zephyr/subsys/bluetooth/controller/libsubsys__bluetooth__controller.a(hci.c.obj)
                0x0000000000004534                hci_acl_encode
 .text.hci_evt_encode
                0x00000000000045e4      0x428 zephyr/subsys/bluetooth/controller/libsubsys__bluetooth__controller.a(hci.c.obj)
                0x00000000000045e4                hci_evt_encode
 .text.hci_num_cmplt_encode
                0x0000000000004a0c       0x28 zephyr/subsys/bluetooth/controller/libsubsys__bluetooth__controller.a(hci.c.obj)
                0x0000000000004a0c                hci_num_cmplt_encode
 .text.hci_get_class
                0x0000000000004a34       0x30 zephyr/subsys/bluetooth/controller/libsubsys__bluetooth__controller.a(hci.c.obj)
                0x0000000000004a34                hci_get_class
 .text.hci_init
                0x0000000000004a64       0x10 zephyr/subsys/bluetooth/controller/libsubsys__bluetooth__controller.a(hci.c.obj)
                0x0000000000004a64                hci_init
 .text.cpu_sleep
                0x0000000000004a74        0x8 zephyr/subsys/bluetooth/controller/libsubsys__bluetooth__controller.a(ctrl.c.obj)
 .text.pdu_len_cmp
                0x0000000000004a7c       0x3c zephyr/subsys/bluetooth/controller/libsubsys__bluetooth__controller.a(ctrl.c.obj)
 .text.ticker_if_done
                0x0000000000004ab8        0x4 zephyr/subsys/bluetooth/controller/libsubsys__bluetooth__controller.a(ctrl.c.obj)
 .text.prepare_reduced
                0x0000000000004abc        0xc zephyr/subsys/bluetooth/controller/libsubsys__bluetooth__controller.a(ctrl.c.obj)
 .text.prepare_normal
                0x0000000000004ac8        0xc zephyr/subsys/bluetooth/controller/libsubsys__bluetooth__controller.a(ctrl.c.obj)
 .text.chan_sel_remap
                0x0000000000004ad4       0x36 zephyr/subsys/bluetooth/controller/libsubsys__bluetooth__controller.a(ctrl.c.obj)
 *fill*         0x0000000000004b0a        0x2 
 .text.packet_rx_acquired_count_get
                0x0000000000004b0c       0x2c zephyr/subsys/bluetooth/controller/libsubsys__bluetooth__controller.a(ctrl.c.obj)
 .text.packet_rx_reserve_get
                0x0000000000004b38       0x24 zephyr/subsys/bluetooth/controller/libsubsys__bluetooth__controller.a(ctrl.c.obj)
 .text.conn_update_req
                0x0000000000004b5c       0xcc zephyr/subsys/bluetooth/controller/libsubsys__bluetooth__controller.a(ctrl.c.obj)
 .text.ticker_op_latency_cancelled
                0x0000000000004c28       0x24 zephyr/subsys/bluetooth/controller/libsubsys__bluetooth__controller.a(ctrl.c.obj)
 .text.packet_rx_allocate
                0x0000000000004c4c       0x98 zephyr/subsys/bluetooth/controller/libsubsys__bluetooth__controller.a(ctrl.c.obj)
 .text.common_init
                0x0000000000004ce4       0xf4 zephyr/subsys/bluetooth/controller/libsubsys__bluetooth__controller.a(ctrl.c.obj)
 .text.tx_cmplt_get
                0x0000000000004dd8       0x94 zephyr/subsys/bluetooth/controller/libsubsys__bluetooth__controller.a(ctrl.c.obj)
 .text.connection_get
                0x0000000000004e6c       0x2c zephyr/subsys/bluetooth/controller/libsubsys__bluetooth__controller.a(ctrl.c.obj)
 .text.role_disable
                0x0000000000004e98      0x294 zephyr/subsys/bluetooth/controller/libsubsys__bluetooth__controller.a(ctrl.c.obj)
 .text.mayfly_radio_stop
                0x000000000000512c       0x3c zephyr/subsys/bluetooth/controller/libsubsys__bluetooth__controller.a(ctrl.c.obj)
 .text.rx_packet_set
                0x0000000000005168       0x58 zephyr/subsys/bluetooth/controller/libsubsys__bluetooth__controller.a(ctrl.c.obj)
 .text.pdu_node_tx_release
                0x00000000000051c0       0x58 zephyr/subsys/bluetooth/controller/libsubsys__bluetooth__controller.a(ctrl.c.obj)
 .text.packet_tx_enqueue
                0x0000000000005218       0x9c zephyr/subsys/bluetooth/controller/libsubsys__bluetooth__controller.a(ctrl.c.obj)
 .text.connection_release
                0x00000000000052b4      0x12c zephyr/subsys/bluetooth/controller/libsubsys__bluetooth__controller.a(ctrl.c.obj)
 .text.tx_packet_set
                0x00000000000053e0       0x56 zephyr/subsys/bluetooth/controller/libsubsys__bluetooth__controller.a(ctrl.c.obj)
 *fill*         0x0000000000005436        0x2 
 .text.chan_set
                0x0000000000005438      0x27c zephyr/subsys/bluetooth/controller/libsubsys__bluetooth__controller.a(ctrl.c.obj)
 .text.adv_setup
                0x00000000000056b4      0x250 zephyr/subsys/bluetooth/controller/libsubsys__bluetooth__controller.a(ctrl.c.obj)
 *fill*         0x0000000000005904        0x4 
 .text.sched_free_win_offset_calc
                0x0000000000005908      0x250 zephyr/subsys/bluetooth/controller/libsubsys__bluetooth__controller.a(ctrl.c.obj)
 .text.mayfly_sched_free_win_offset_calc
                0x0000000000005b58       0x3c zephyr/subsys/bluetooth/controller/libsubsys__bluetooth__controller.a(ctrl.c.obj)
 *fill*         0x0000000000005b94        0x4 
 .text.mayfly_sched_win_offset_select
                0x0000000000005b98      0x118 zephyr/subsys/bluetooth/controller/libsubsys__bluetooth__controller.a(ctrl.c.obj)
 .text.sched_after_mstr_free_slot_get
                0x0000000000005cb0      0x128 zephyr/subsys/bluetooth/controller/libsubsys__bluetooth__controller.a(ctrl.c.obj)
 .text.sched_after_mstr_free_offset_get
                0x0000000000005dd8       0x80 zephyr/subsys/bluetooth/controller/libsubsys__bluetooth__controller.a(ctrl.c.obj)
 .text.mayfly_sched_win_offset_use
                0x0000000000005e58       0x34 zephyr/subsys/bluetooth/controller/libsubsys__bluetooth__controller.a(ctrl.c.obj)
 .text.mayfly_sched_after_mstr_free_offset_get
                0x0000000000005e8c       0x1c zephyr/subsys/bluetooth/controller/libsubsys__bluetooth__controller.a(ctrl.c.obj)
 .text.isr_adv_ci_adva_check
                0x0000000000005ea8       0x48 zephyr/subsys/bluetooth/controller/libsubsys__bluetooth__controller.a(ctrl.c.obj)
 .text.packet_rx_enqueue
                0x0000000000005ef0       0x6c zephyr/subsys/bluetooth/controller/libsubsys__bluetooth__controller.a(ctrl.c.obj)
 .text.mayfly_adv_stop
                0x0000000000005f5c       0x3c zephyr/subsys/bluetooth/controller/libsubsys__bluetooth__controller.a(ctrl.c.obj)
 .text.terminate_ind_rx_enqueue
                0x0000000000005f98       0x60 zephyr/subsys/bluetooth/controller/libsubsys__bluetooth__controller.a(ctrl.c.obj)
 .text.isr_scan_tgta_check
                0x0000000000005ff8       0x98 zephyr/subsys/bluetooth/controller/libsubsys__bluetooth__controller.a(ctrl.c.obj)
 .text.isr_rx_scan_report
                0x0000000000006090       0x8c zephyr/subsys/bluetooth/controller/libsubsys__bluetooth__controller.a(ctrl.c.obj)
 .text.rx_fc_lock
                0x000000000000611c       0x34 zephyr/subsys/bluetooth/controller/libsubsys__bluetooth__controller.a(ctrl.c.obj)
 .text.ticker_success_assert
                0x0000000000006150       0x14 zephyr/subsys/bluetooth/controller/libsubsys__bluetooth__controller.a(ctrl.c.obj)
 .text.ticker_stop_adv_assert
                0x0000000000006164       0x34 zephyr/subsys/bluetooth/controller/libsubsys__bluetooth__controller.a(ctrl.c.obj)
 .text.ticker_stop_scan_assert
                0x0000000000006198       0x34 zephyr/subsys/bluetooth/controller/libsubsys__bluetooth__controller.a(ctrl.c.obj)
 .text.ticker_update_adv_assert
                0x00000000000061cc       0x20 zephyr/subsys/bluetooth/controller/libsubsys__bluetooth__controller.a(ctrl.c.obj)
 .text.ticker_update_slave_assert
                0x00000000000061ec       0x20 zephyr/subsys/bluetooth/controller/libsubsys__bluetooth__controller.a(ctrl.c.obj)
 .text.ticker_job_disable
                0x000000000000620c       0x18 zephyr/subsys/bluetooth/controller/libsubsys__bluetooth__controller.a(ctrl.c.obj)
 .text.hdr_conn_get
                0x0000000000006224       0x3c zephyr/subsys/bluetooth/controller/libsubsys__bluetooth__controller.a(ctrl.c.obj)
 .text.mayfly_xtal_retain.part.13
                0x0000000000006260       0x50 zephyr/subsys/bluetooth/controller/libsubsys__bluetooth__controller.a(ctrl.c.obj)
 .text.event_active
                0x00000000000062b0       0x28 zephyr/subsys/bluetooth/controller/libsubsys__bluetooth__controller.a(ctrl.c.obj)
 .text.event_xtal
                0x00000000000062d8       0x28 zephyr/subsys/bluetooth/controller/libsubsys__bluetooth__controller.a(ctrl.c.obj)
 .text.mayfly_radio_active.part.16
                0x0000000000006300       0x30 zephyr/subsys/bluetooth/controller/libsubsys__bluetooth__controller.a(ctrl.c.obj)
 .text.mayfly_radio_active
                0x0000000000006330       0x1c zephyr/subsys/bluetooth/controller/libsubsys__bluetooth__controller.a(ctrl.c.obj)
 .text.mayfly_radio_inactive
                0x000000000000634c        0x4 zephyr/subsys/bluetooth/controller/libsubsys__bluetooth__controller.a(ctrl.c.obj)
 .text.ticker_stop_adv_stop
                0x0000000000006350      0x170 zephyr/subsys/bluetooth/controller/libsubsys__bluetooth__controller.a(ctrl.c.obj)
 .text.scan_ticker_enable
                0x00000000000064c0       0xe4 zephyr/subsys/bluetooth/controller/libsubsys__bluetooth__controller.a(ctrl.c.obj)
 .text.aux_packet_function
                0x00000000000065a4        0x4 zephyr/subsys/bluetooth/controller/libsubsys__bluetooth__controller.a(ctrl.c.obj)
 .text.prepare_normal_set
                0x00000000000065a8       0x58 zephyr/subsys/bluetooth/controller/libsubsys__bluetooth__controller.a(ctrl.c.obj)
 .text.adv_scan_configure.constprop.25
                0x0000000000006600       0x54 zephyr/subsys/bluetooth/controller/libsubsys__bluetooth__controller.a(ctrl.c.obj)
 .text.event_stop.constprop.26
                0x0000000000006654       0x2c zephyr/subsys/bluetooth/controller/libsubsys__bluetooth__controller.a(ctrl.c.obj)
 .text.event_common_prepare
                0x0000000000006680      0x1b4 zephyr/subsys/bluetooth/controller/libsubsys__bluetooth__controller.a(ctrl.c.obj)
 .text.radio_event_adv_prepare
                0x0000000000006834       0x48 zephyr/subsys/bluetooth/controller/libsubsys__bluetooth__controller.a(ctrl.c.obj)
                0x0000000000006834                radio_event_adv_prepare
 .text.event_scan_prepare
                0x000000000000687c       0x98 zephyr/subsys/bluetooth/controller/libsubsys__bluetooth__controller.a(ctrl.c.obj)
 .text.radio_event_ext_adv_prepare
                0x0000000000006914       0x48 zephyr/subsys/bluetooth/controller/libsubsys__bluetooth__controller.a(ctrl.c.obj)
                0x0000000000006914                radio_event_ext_adv_prepare
 .text.event_adv_stop
                0x000000000000695c       0x40 zephyr/subsys/bluetooth/controller/libsubsys__bluetooth__controller.a(ctrl.c.obj)
                0x000000000000695c                event_adv_stop
 .text.mayfly_xtal_start
                0x000000000000699c       0x10 zephyr/subsys/bluetooth/controller/libsubsys__bluetooth__controller.a(ctrl.c.obj)
 .text.mayfly_xtal_stop
                0x00000000000069ac       0x10 zephyr/subsys/bluetooth/controller/libsubsys__bluetooth__controller.a(ctrl.c.obj)
 .text.chan_sel_2
                0x00000000000069bc       0x88 zephyr/subsys/bluetooth/controller/libsubsys__bluetooth__controller.a(ctrl.c.obj)
 .text.preempt_calc
                0x0000000000006a44       0x44 zephyr/subsys/bluetooth/controller/libsubsys__bluetooth__controller.a(ctrl.c.obj)
 .text.event_adv
                0x0000000000006a88       0xd8 zephyr/subsys/bluetooth/controller/libsubsys__bluetooth__controller.a(ctrl.c.obj)
 .text.event_scan
                0x0000000000006b60      0x290 zephyr/subsys/bluetooth/controller/libsubsys__bluetooth__controller.a(ctrl.c.obj)
 .text.event_ext_adv
                0x0000000000006df0      0x170 zephyr/subsys/bluetooth/controller/libsubsys__bluetooth__controller.a(ctrl.c.obj)
 .text.ctrl_tx_enqueue
                0x0000000000006f60       0x5c zephyr/subsys/bluetooth/controller/libsubsys__bluetooth__controller.a(ctrl.c.obj)
 .text.ctrl_tx_sec_enqueue
                0x0000000000006fbc       0x32 zephyr/subsys/bluetooth/controller/libsubsys__bluetooth__controller.a(ctrl.c.obj)
 *fill*         0x0000000000006fee        0x2 
 .text.feature_rsp_send
                0x0000000000006ff0       0x8c zephyr/subsys/bluetooth/controller/libsubsys__bluetooth__controller.a(ctrl.c.obj)
 .text.start_enc_rsp_send
                0x000000000000707c       0x48 zephyr/subsys/bluetooth/controller/libsubsys__bluetooth__controller.a(ctrl.c.obj)
 .text.reject_ext_ind_send
                0x00000000000070c4       0x38 zephyr/subsys/bluetooth/controller/libsubsys__bluetooth__controller.a(ctrl.c.obj)
 *fill*         0x00000000000070fc        0x4 
 .text.event_connection_prepare
                0x0000000000007100     0x118c zephyr/subsys/bluetooth/controller/libsubsys__bluetooth__controller.a(ctrl.c.obj)
 .text.event_master_prepare
                0x000000000000828c        0x4 zephyr/subsys/bluetooth/controller/libsubsys__bluetooth__controller.a(ctrl.c.obj)
 .text.event_slave_prepare
                0x0000000000008290        0x4 zephyr/subsys/bluetooth/controller/libsubsys__bluetooth__controller.a(ctrl.c.obj)
 .text.event_stop
                0x0000000000008294       0x2c zephyr/subsys/bluetooth/controller/libsubsys__bluetooth__controller.a(ctrl.c.obj)
 .text.connection_configure
                0x00000000000082c0       0x3c zephyr/subsys/bluetooth/controller/libsubsys__bluetooth__controller.a(ctrl.c.obj)
 .text.event_slave
                0x00000000000082fc      0x1b8 zephyr/subsys/bluetooth/controller/libsubsys__bluetooth__controller.a(ctrl.c.obj)
 .text.prepare_pdu_data_tx
                0x00000000000084b4      0x120 zephyr/subsys/bluetooth/controller/libsubsys__bluetooth__controller.a(ctrl.c.obj)
 *fill*         0x00000000000085d4        0x4 
 .text.mayfly_xtal_stop_calc
                0x00000000000085d8      0x21c zephyr/subsys/bluetooth/controller/libsubsys__bluetooth__controller.a(ctrl.c.obj)
 .text.event_master
                0x00000000000087f4      0x14c zephyr/subsys/bluetooth/controller/libsubsys__bluetooth__controller.a(ctrl.c.obj)
 .text.isr_rx_conn_pkt_ctrl
                0x0000000000008940     0x1214 zephyr/subsys/bluetooth/controller/libsubsys__bluetooth__controller.a(ctrl.c.obj)
 *fill*         0x0000000000009b54        0x4 
 .text.isr      0x0000000000009b58     0x18cc zephyr/subsys/bluetooth/controller/libsubsys__bluetooth__controller.a(ctrl.c.obj)
 .text.radio_init
                0x000000000000b424      0x104 zephyr/subsys/bluetooth/controller/libsubsys__bluetooth__controller.a(ctrl.c.obj)
                0x000000000000b424                radio_init
 .text.radio_hf_clock_get
                0x000000000000b528        0xc zephyr/subsys/bluetooth/controller/libsubsys__bluetooth__controller.a(ctrl.c.obj)
                0x000000000000b528                radio_hf_clock_get
 .text.ll_reset
                0x000000000000b534       0xa0 zephyr/subsys/bluetooth/controller/libsubsys__bluetooth__controller.a(ctrl.c.obj)
                0x000000000000b534                ll_reset
 .text.radio_adv_data_get
                0x000000000000b5d4        0x8 zephyr/subsys/bluetooth/controller/libsubsys__bluetooth__controller.a(ctrl.c.obj)
                0x000000000000b5d4                radio_adv_data_get
 .text.radio_aux_adv_data_get
                0x000000000000b5dc        0x8 zephyr/subsys/bluetooth/controller/libsubsys__bluetooth__controller.a(ctrl.c.obj)
                0x000000000000b5dc                radio_aux_adv_data_get
 .text.radio_scan_data_get
                0x000000000000b5e4        0x8 zephyr/subsys/bluetooth/controller/libsubsys__bluetooth__controller.a(ctrl.c.obj)
                0x000000000000b5e4                radio_scan_data_get
 .text.ll_adv_is_enabled
                0x000000000000b5ec       0x10 zephyr/subsys/bluetooth/controller/libsubsys__bluetooth__controller.a(ctrl.c.obj)
                0x000000000000b5ec                ll_adv_is_enabled
 .text.radio_adv_filter_pol_get
                0x000000000000b5fc       0x1c zephyr/subsys/bluetooth/controller/libsubsys__bluetooth__controller.a(ctrl.c.obj)
                0x000000000000b5fc                radio_adv_filter_pol_get
 .text.ll_scan_is_enabled
                0x000000000000b618       0x2c zephyr/subsys/bluetooth/controller/libsubsys__bluetooth__controller.a(ctrl.c.obj)
                0x000000000000b618                ll_scan_is_enabled
 .text.radio_scan_filter_pol_get
                0x000000000000b644       0x1c zephyr/subsys/bluetooth/controller/libsubsys__bluetooth__controller.a(ctrl.c.obj)
                0x000000000000b644                radio_scan_filter_pol_get
 .text.radio_connect_enable
                0x000000000000b660      0x364 zephyr/subsys/bluetooth/controller/libsubsys__bluetooth__controller.a(ctrl.c.obj)
                0x000000000000b660                radio_connect_enable
 .text.ll_conn_update
                0x000000000000b9c4       0xf0 zephyr/subsys/bluetooth/controller/libsubsys__bluetooth__controller.a(ctrl.c.obj)
                0x000000000000b9c4                ll_conn_update
 .text.ll_chm_update
                0x000000000000bab4       0x84 zephyr/subsys/bluetooth/controller/libsubsys__bluetooth__controller.a(ctrl.c.obj)
                0x000000000000bab4                ll_chm_update
 .text.ll_chm_get
                0x000000000000bb38       0x2a zephyr/subsys/bluetooth/controller/libsubsys__bluetooth__controller.a(ctrl.c.obj)
                0x000000000000bb38                ll_chm_get
 .text.ll_start_enc_req_send
                0x000000000000bb62       0x86 zephyr/subsys/bluetooth/controller/libsubsys__bluetooth__controller.a(ctrl.c.obj)
                0x000000000000bb62                ll_start_enc_req_send
 .text.ll_feature_req_send
                0x000000000000bbe8       0x28 zephyr/subsys/bluetooth/controller/libsubsys__bluetooth__controller.a(ctrl.c.obj)
                0x000000000000bbe8                ll_feature_req_send
 .text.ll_version_ind_send
                0x000000000000bc10       0x28 zephyr/subsys/bluetooth/controller/libsubsys__bluetooth__controller.a(ctrl.c.obj)
                0x000000000000bc10                ll_version_ind_send
 .text.ll_terminate_ind_send
                0x000000000000bc38       0x28 zephyr/subsys/bluetooth/controller/libsubsys__bluetooth__controller.a(ctrl.c.obj)
                0x000000000000bc38                ll_terminate_ind_send
 .text.ll_tx_pwr_lvl_get
                0x000000000000bc60       0x14 zephyr/subsys/bluetooth/controller/libsubsys__bluetooth__controller.a(ctrl.c.obj)
                0x000000000000bc60                ll_tx_pwr_lvl_get
 .text.ll_apto_get
                0x000000000000bc74       0x28 zephyr/subsys/bluetooth/controller/libsubsys__bluetooth__controller.a(ctrl.c.obj)
                0x000000000000bc74                ll_apto_get
 .text.ll_apto_set
                0x000000000000bc9c       0x2c zephyr/subsys/bluetooth/controller/libsubsys__bluetooth__controller.a(ctrl.c.obj)
                0x000000000000bc9c                ll_apto_set
 .text.ll_length_req_send
                0x000000000000bcc8       0x46 zephyr/subsys/bluetooth/controller/libsubsys__bluetooth__controller.a(ctrl.c.obj)
                0x000000000000bcc8                ll_length_req_send
 *fill*         0x000000000000bd0e        0x2 
 .text.ll_length_default_get
                0x000000000000bd10       0x14 zephyr/subsys/bluetooth/controller/libsubsys__bluetooth__controller.a(ctrl.c.obj)
                0x000000000000bd10                ll_length_default_get
 .text.ll_length_default_set
                0x000000000000bd24       0x14 zephyr/subsys/bluetooth/controller/libsubsys__bluetooth__controller.a(ctrl.c.obj)
                0x000000000000bd24                ll_length_default_set
 .text.ll_length_max_get
                0x000000000000bd38       0x12 zephyr/subsys/bluetooth/controller/libsubsys__bluetooth__controller.a(ctrl.c.obj)
                0x000000000000bd38                ll_length_max_get
 .text.ll_phy_get
                0x000000000000bd4a       0x28 zephyr/subsys/bluetooth/controller/libsubsys__bluetooth__controller.a(ctrl.c.obj)
                0x000000000000bd4a                ll_phy_get
 *fill*         0x000000000000bd72        0x2 
 .text.ll_phy_default_set
                0x000000000000bd74       0x14 zephyr/subsys/bluetooth/controller/libsubsys__bluetooth__controller.a(ctrl.c.obj)
                0x000000000000bd74                ll_phy_default_set
 .text.ll_phy_req_send
                0x000000000000bd88       0x60 zephyr/subsys/bluetooth/controller/libsubsys__bluetooth__controller.a(ctrl.c.obj)
                0x000000000000bd88                ll_phy_req_send
 .text.ll_rx_get
                0x000000000000bde8       0x70 zephyr/subsys/bluetooth/controller/libsubsys__bluetooth__controller.a(ctrl.c.obj)
                0x000000000000bde8                ll_rx_get
 .text.ll_rx_mem_release
                0x000000000000be58       0x6c zephyr/subsys/bluetooth/controller/libsubsys__bluetooth__controller.a(ctrl.c.obj)
                0x000000000000be58                ll_rx_mem_release
 .text.do_radio_rx_fc_set
                0x000000000000bec4       0x5c zephyr/subsys/bluetooth/controller/libsubsys__bluetooth__controller.a(ctrl.c.obj)
                0x000000000000bec4                do_radio_rx_fc_set
 .text.radio_rx_fc_set
                0x000000000000bf20       0x58 zephyr/subsys/bluetooth/controller/libsubsys__bluetooth__controller.a(ctrl.c.obj)
                0x000000000000bf20                radio_rx_fc_set
 .text.ll_tx_mem_acquire
                0x000000000000bf78        0xc zephyr/subsys/bluetooth/controller/libsubsys__bluetooth__controller.a(ctrl.c.obj)
                0x000000000000bf78                ll_tx_mem_acquire
 .text.ll_tx_mem_release
                0x000000000000bf84        0xc zephyr/subsys/bluetooth/controller/libsubsys__bluetooth__controller.a(ctrl.c.obj)
                0x000000000000bf84                ll_tx_mem_release
 .text.ll_tx_mem_enqueue
                0x000000000000bf90       0xcc zephyr/subsys/bluetooth/controller/libsubsys__bluetooth__controller.a(ctrl.c.obj)
                0x000000000000bf90                ll_tx_mem_enqueue
 .text.ll_enc_req_send
                0x000000000000c05c       0xd6 zephyr/subsys/bluetooth/controller/libsubsys__bluetooth__controller.a(ctrl.c.obj)
                0x000000000000c05c                ll_enc_req_send
 *fill*         0x000000000000c132        0x6 
 .text.radio_adv_enable
                0x000000000000c138      0x520 zephyr/subsys/bluetooth/controller/libsubsys__bluetooth__controller.a(ctrl.c.obj)
                0x000000000000c138                radio_adv_enable
 .text.radio_adv_disable
                0x000000000000c658       0x5c zephyr/subsys/bluetooth/controller/libsubsys__bluetooth__controller.a(ctrl.c.obj)
                0x000000000000c658                radio_adv_disable
 *fill*         0x000000000000c6b4        0x4 
 .text.radio_scan_enable
                0x000000000000c6b8      0x1fc zephyr/subsys/bluetooth/controller/libsubsys__bluetooth__controller.a(ctrl.c.obj)
                0x000000000000c6b8                radio_scan_enable
 .text.radio_scan_disable
                0x000000000000c8b4       0x5c zephyr/subsys/bluetooth/controller/libsubsys__bluetooth__controller.a(ctrl.c.obj)
                0x000000000000c8b4                radio_scan_disable
 .text.ll_connect_disable
                0x000000000000c910       0x14 zephyr/subsys/bluetooth/controller/libsubsys__bluetooth__controller.a(ctrl.c.obj)
                0x000000000000c910                ll_connect_disable
 .text.ll_rx_dequeue
                0x000000000000c924      0x114 zephyr/subsys/bluetooth/controller/libsubsys__bluetooth__controller.a(ctrl.c.obj)
                0x000000000000c924                ll_rx_dequeue
 .text.rtc0_nrf5_isr
                0x000000000000ca38       0x34 zephyr/subsys/bluetooth/controller/libsubsys__bluetooth__controller.a(ll.c.obj)
 .text.swi4_nrf5_isr
                0x000000000000ca6c        0x6 zephyr/subsys/bluetooth/controller/libsubsys__bluetooth__controller.a(ll.c.obj)
 .text.radio_nrf5_isr
                0x000000000000ca72       0x1e zephyr/subsys/bluetooth/controller/libsubsys__bluetooth__controller.a(ll.c.obj)
                0x000000000000ca72                radio_nrf5_isr
 .text.radio_active_callback
                0x000000000000ca90        0x2 zephyr/subsys/bluetooth/controller/libsubsys__bluetooth__controller.a(ll.c.obj)
                0x000000000000ca90                radio_active_callback
 *fill*         0x000000000000ca92        0x2 
 .text.radio_event_callback
                0x000000000000ca94        0xc zephyr/subsys/bluetooth/controller/libsubsys__bluetooth__controller.a(ll.c.obj)
                0x000000000000ca94                radio_event_callback
 .text.ll_init  0x000000000000caa0      0x110 zephyr/subsys/bluetooth/controller/libsubsys__bluetooth__controller.a(ll.c.obj)
                0x000000000000caa0                ll_init
 .text.ll_adv_set_get
                0x000000000000cbb0        0x8 zephyr/subsys/bluetooth/controller/libsubsys__bluetooth__controller.a(ll_adv.c.obj)
                0x000000000000cbb0                ll_adv_set_get
 .text.ll_adv_params_set
                0x000000000000cbb8      0x3a0 zephyr/subsys/bluetooth/controller/libsubsys__bluetooth__controller.a(ll_adv.c.obj)
                0x000000000000cbb8                ll_adv_params_set
 .text.ll_adv_data_set
                0x000000000000cf58       0xd8 zephyr/subsys/bluetooth/controller/libsubsys__bluetooth__controller.a(ll_adv.c.obj)
                0x000000000000cf58                ll_adv_data_set
 .text.ll_scan_data_set
                0x000000000000d030       0x82 zephyr/subsys/bluetooth/controller/libsubsys__bluetooth__controller.a(ll_adv.c.obj)
                0x000000000000d030                ll_scan_data_set
 *fill*         0x000000000000d0b2        0x2 
 .text.ll_adv_enable
                0x000000000000d0b4       0xf8 zephyr/subsys/bluetooth/controller/libsubsys__bluetooth__controller.a(ll_adv.c.obj)
                0x000000000000d0b4                ll_adv_enable
 .text.ll_scan_params_set
                0x000000000000d1ac       0x48 zephyr/subsys/bluetooth/controller/libsubsys__bluetooth__controller.a(ll_scan.c.obj)
                0x000000000000d1ac                ll_scan_params_set
 .text.ll_scan_enable
                0x000000000000d1f4       0x74 zephyr/subsys/bluetooth/controller/libsubsys__bluetooth__controller.a(ll_scan.c.obj)
                0x000000000000d1f4                ll_scan_enable
 .text.ll_create_connection
                0x000000000000d268       0x9c zephyr/subsys/bluetooth/controller/libsubsys__bluetooth__controller.a(ll_master.c.obj)
                0x000000000000d268                ll_create_connection
 .text.isr_tx   0x000000000000d304       0x88 zephyr/subsys/bluetooth/controller/libsubsys__bluetooth__controller.a(ll_test.c.obj)
 .text.isr_rx   0x000000000000d38c       0x3c zephyr/subsys/bluetooth/controller/libsubsys__bluetooth__controller.a(ll_test.c.obj)
 .text.init.part.1
                0x000000000000d3c8       0x94 zephyr/subsys/bluetooth/controller/libsubsys__bluetooth__controller.a(ll_test.c.obj)
 .text.ll_test_tx
                0x000000000000d45c       0xc8 zephyr/subsys/bluetooth/controller/libsubsys__bluetooth__controller.a(ll_test.c.obj)
                0x000000000000d45c                ll_test_tx
 .text.ll_test_rx
                0x000000000000d524       0x50 zephyr/subsys/bluetooth/controller/libsubsys__bluetooth__controller.a(ll_test.c.obj)
                0x000000000000d524                ll_test_rx
 .text.ll_test_end
                0x000000000000d574       0x68 zephyr/subsys/bluetooth/controller/libsubsys__bluetooth__controller.a(ll_test.c.obj)
                0x000000000000d574                ll_test_end
 .text.wl_find  0x000000000000d5dc       0x64 zephyr/subsys/bluetooth/controller/libsubsys__bluetooth__controller.a(ll_filter.c.obj)
 .text.filter_rl_update
                0x000000000000d640       0x58 zephyr/subsys/bluetooth/controller/libsubsys__bluetooth__controller.a(ll_filter.c.obj)
 .text.rl_access_check.constprop.1
                0x000000000000d698       0x18 zephyr/subsys/bluetooth/controller/libsubsys__bluetooth__controller.a(ll_filter.c.obj)
 .text.filter_wl_update
                0x000000000000d6b0       0x84 zephyr/subsys/bluetooth/controller/libsubsys__bluetooth__controller.a(ll_filter.c.obj)
 .text.ctrl_lrpa_get
                0x000000000000d734       0x28 zephyr/subsys/bluetooth/controller/libsubsys__bluetooth__controller.a(ll_filter.c.obj)
                0x000000000000d734                ctrl_lrpa_get
 .text.ctrl_irks_get
                0x000000000000d75c       0x14 zephyr/subsys/bluetooth/controller/libsubsys__bluetooth__controller.a(ll_filter.c.obj)
                0x000000000000d75c                ctrl_irks_get
 .text.ctrl_rl_idx
                0x000000000000d770       0x5c zephyr/subsys/bluetooth/controller/libsubsys__bluetooth__controller.a(ll_filter.c.obj)
                0x000000000000d770                ctrl_rl_idx
 .text.ctrl_rl_irk_idx
                0x000000000000d7cc       0x54 zephyr/subsys/bluetooth/controller/libsubsys__bluetooth__controller.a(ll_filter.c.obj)
                0x000000000000d7cc                ctrl_rl_irk_idx
 .text.ctrl_irk_whitelisted
                0x000000000000d820       0x38 zephyr/subsys/bluetooth/controller/libsubsys__bluetooth__controller.a(ll_filter.c.obj)
                0x000000000000d820                ctrl_irk_whitelisted
 .text.ctrl_filter_get
                0x000000000000d858       0x18 zephyr/subsys/bluetooth/controller/libsubsys__bluetooth__controller.a(ll_filter.c.obj)
                0x000000000000d858                ctrl_filter_get
 .text.ll_wl_size_get
                0x000000000000d870        0x4 zephyr/subsys/bluetooth/controller/libsubsys__bluetooth__controller.a(ll_filter.c.obj)
                0x000000000000d870                ll_wl_size_get
 .text.ll_wl_clear
                0x000000000000d874       0x40 zephyr/subsys/bluetooth/controller/libsubsys__bluetooth__controller.a(ll_filter.c.obj)
                0x000000000000d874                ll_wl_clear
 .text.ll_wl_remove
                0x000000000000d8b4       0x6c zephyr/subsys/bluetooth/controller/libsubsys__bluetooth__controller.a(ll_filter.c.obj)
                0x000000000000d8b4                ll_wl_remove
 .text.ll_filters_adv_update
                0x000000000000d920       0x2c zephyr/subsys/bluetooth/controller/libsubsys__bluetooth__controller.a(ll_filter.c.obj)
                0x000000000000d920                ll_filters_adv_update
 .text.ll_filters_scan_update
                0x000000000000d94c       0x2c zephyr/subsys/bluetooth/controller/libsubsys__bluetooth__controller.a(ll_filter.c.obj)
                0x000000000000d94c                ll_filters_scan_update
 .text.ll_rl_find
                0x000000000000d978       0x68 zephyr/subsys/bluetooth/controller/libsubsys__bluetooth__controller.a(ll_filter.c.obj)
                0x000000000000d978                ll_rl_find
 .text.ll_wl_add
                0x000000000000d9e0       0xb0 zephyr/subsys/bluetooth/controller/libsubsys__bluetooth__controller.a(ll_filter.c.obj)
                0x000000000000d9e0                ll_wl_add
 .text.ctrl_rl_idx_allowed
                0x000000000000da90       0x48 zephyr/subsys/bluetooth/controller/libsubsys__bluetooth__controller.a(ll_filter.c.obj)
                0x000000000000da90                ctrl_rl_idx_allowed
 .text.ll_rl_id_addr_get
                0x000000000000dad8       0x54 zephyr/subsys/bluetooth/controller/libsubsys__bluetooth__controller.a(ll_filter.c.obj)
                0x000000000000dad8                ll_rl_id_addr_get
 .text.ctrl_rl_addr_allowed
                0x000000000000db2c       0x78 zephyr/subsys/bluetooth/controller/libsubsys__bluetooth__controller.a(ll_filter.c.obj)
                0x000000000000db2c                ctrl_rl_addr_allowed
 .text.ctrl_rl_addr_resolve
                0x000000000000dba4       0x40 zephyr/subsys/bluetooth/controller/libsubsys__bluetooth__controller.a(ll_filter.c.obj)
                0x000000000000dba4                ctrl_rl_addr_resolve
 .text.ctrl_rl_enabled
                0x000000000000dbe4       0x10 zephyr/subsys/bluetooth/controller/libsubsys__bluetooth__controller.a(ll_filter.c.obj)
                0x000000000000dbe4                ctrl_rl_enabled
 .text.ll_rl_pdu_adv_update
                0x000000000000dbf4       0xb8 zephyr/subsys/bluetooth/controller/libsubsys__bluetooth__controller.a(ll_filter.c.obj)
                0x000000000000dbf4                ll_rl_pdu_adv_update
 .text.ll_rl_rpa_update
                0x000000000000dcac      0x1c0 zephyr/subsys/bluetooth/controller/libsubsys__bluetooth__controller.a(ll_filter.c.obj)
                0x000000000000dcac                ll_rl_rpa_update
 .text.rpa_timeout
                0x000000000000de6c       0x24 zephyr/subsys/bluetooth/controller/libsubsys__bluetooth__controller.a(ll_filter.c.obj)
 .text.ll_adv_scan_state_cb
                0x000000000000de90       0x30 zephyr/subsys/bluetooth/controller/libsubsys__bluetooth__controller.a(ll_filter.c.obj)
                0x000000000000de90                ll_adv_scan_state_cb
 .text.ll_rl_size_get
                0x000000000000dec0        0x4 zephyr/subsys/bluetooth/controller/libsubsys__bluetooth__controller.a(ll_filter.c.obj)
                0x000000000000dec0                ll_rl_size_get
 .text.ll_rl_clear
                0x000000000000dec4       0x34 zephyr/subsys/bluetooth/controller/libsubsys__bluetooth__controller.a(ll_filter.c.obj)
                0x000000000000dec4                ll_rl_clear
 .text.ll_rl_add
                0x000000000000def8      0x144 zephyr/subsys/bluetooth/controller/libsubsys__bluetooth__controller.a(ll_filter.c.obj)
                0x000000000000def8                ll_rl_add
 .text.ll_rl_remove
                0x000000000000e03c       0xd8 zephyr/subsys/bluetooth/controller/libsubsys__bluetooth__controller.a(ll_filter.c.obj)
                0x000000000000e03c                ll_rl_remove
 .text.ll_rl_crpa_set
                0x000000000000e114       0x44 zephyr/subsys/bluetooth/controller/libsubsys__bluetooth__controller.a(ll_filter.c.obj)
                0x000000000000e114                ll_rl_crpa_set
 .text.ll_rl_crpa_get
                0x000000000000e158       0x40 zephyr/subsys/bluetooth/controller/libsubsys__bluetooth__controller.a(ll_filter.c.obj)
                0x000000000000e158                ll_rl_crpa_get
 .text.ll_rl_lrpa_get
                0x000000000000e198       0x30 zephyr/subsys/bluetooth/controller/libsubsys__bluetooth__controller.a(ll_filter.c.obj)
                0x000000000000e198                ll_rl_lrpa_get
 .text.ll_rl_enable
                0x000000000000e1c8       0x24 zephyr/subsys/bluetooth/controller/libsubsys__bluetooth__controller.a(ll_filter.c.obj)
                0x000000000000e1c8                ll_rl_enable
 .text.ll_rl_timeout_set
                0x000000000000e1ec       0x10 zephyr/subsys/bluetooth/controller/libsubsys__bluetooth__controller.a(ll_filter.c.obj)
                0x000000000000e1ec                ll_rl_timeout_set
 .text.ll_priv_mode_set
                0x000000000000e1fc       0x50 zephyr/subsys/bluetooth/controller/libsubsys__bluetooth__controller.a(ll_filter.c.obj)
                0x000000000000e1fc                ll_priv_mode_set
 .text.ll_filter_reset
                0x000000000000e24c       0x90 zephyr/subsys/bluetooth/controller/libsubsys__bluetooth__controller.a(ll_filter.c.obj)
                0x000000000000e24c                ll_filter_reset
 .text.cntr_init
                0x000000000000e2dc       0x1c zephyr/subsys/bluetooth/controller/libsubsys__bluetooth__controller.a(cntr.c.obj)
                0x000000000000e2dc                cntr_init
 .text.cntr_start
                0x000000000000e2f8       0x1c zephyr/subsys/bluetooth/controller/libsubsys__bluetooth__controller.a(cntr.c.obj)
                0x000000000000e2f8                cntr_start
 .text.cntr_stop
                0x000000000000e314       0x34 zephyr/subsys/bluetooth/controller/libsubsys__bluetooth__controller.a(cntr.c.obj)
                0x000000000000e314                cntr_stop
 .text.cntr_cnt_get
                0x000000000000e348        0xc zephyr/subsys/bluetooth/controller/libsubsys__bluetooth__controller.a(cntr.c.obj)
                0x000000000000e348                cntr_cnt_get
 .text.cntr_cmp_set
                0x000000000000e354       0x10 zephyr/subsys/bluetooth/controller/libsubsys__bluetooth__controller.a(cntr.c.obj)
                0x000000000000e354                cntr_cmp_set
 .text.do_ecb   0x000000000000e364       0x4c zephyr/subsys/bluetooth/controller/libsubsys__bluetooth__controller.a(ecb.c.obj)
 .text.ecb_encrypt
                0x000000000000e3b0       0x42 zephyr/subsys/bluetooth/controller/libsubsys__bluetooth__controller.a(ecb.c.obj)
                0x000000000000e3b0                ecb_encrypt
 *fill*         0x000000000000e3f2        0x2 
 .text.hal_radio_enable_on_tick_ppi_config_and_enable
                0x000000000000e3f4       0x30 zephyr/subsys/bluetooth/controller/libsubsys__bluetooth__controller.a(radio.c.obj)
 .text.sw_switch.isra.6
                0x000000000000e424      0x200 zephyr/subsys/bluetooth/controller/libsubsys__bluetooth__controller.a(radio.c.obj)
 .text.isr_radio
                0x000000000000e624       0x10 zephyr/subsys/bluetooth/controller/libsubsys__bluetooth__controller.a(radio.c.obj)
                0x000000000000e624                isr_radio
 .text.radio_isr_set
                0x000000000000e634       0x28 zephyr/subsys/bluetooth/controller/libsubsys__bluetooth__controller.a(radio.c.obj)
                0x000000000000e634                radio_isr_set
 .text.radio_setup
                0x000000000000e65c       0x44 zephyr/subsys/bluetooth/controller/libsubsys__bluetooth__controller.a(radio.c.obj)
                0x000000000000e65c                radio_setup
 .text.radio_reset
                0x000000000000e6a0       0x34 zephyr/subsys/bluetooth/controller/libsubsys__bluetooth__controller.a(radio.c.obj)
                0x000000000000e6a0                radio_reset
 .text.radio_phy_set
                0x000000000000e6d4       0x5c zephyr/subsys/bluetooth/controller/libsubsys__bluetooth__controller.a(radio.c.obj)
                0x000000000000e6d4                radio_phy_set
 .text.radio_tx_power_set
                0x000000000000e730        0xc zephyr/subsys/bluetooth/controller/libsubsys__bluetooth__controller.a(radio.c.obj)
                0x000000000000e730                radio_tx_power_set
 .text.radio_freq_chan_set
                0x000000000000e73c        0xc zephyr/subsys/bluetooth/controller/libsubsys__bluetooth__controller.a(radio.c.obj)
                0x000000000000e73c                radio_freq_chan_set
 .text.radio_whiten_iv_set
                0x000000000000e748       0x24 zephyr/subsys/bluetooth/controller/libsubsys__bluetooth__controller.a(radio.c.obj)
                0x000000000000e748                radio_whiten_iv_set
 .text.radio_aa_set
                0x000000000000e76c       0x30 zephyr/subsys/bluetooth/controller/libsubsys__bluetooth__controller.a(radio.c.obj)
                0x000000000000e76c                radio_aa_set
 .text.radio_pkt_configure
                0x000000000000e79c       0x64 zephyr/subsys/bluetooth/controller/libsubsys__bluetooth__controller.a(radio.c.obj)
                0x000000000000e79c                radio_pkt_configure
 .text.radio_pkt_rx_set
                0x000000000000e800        0xc zephyr/subsys/bluetooth/controller/libsubsys__bluetooth__controller.a(radio.c.obj)
                0x000000000000e800                radio_pkt_rx_set
 .text.radio_pkt_tx_set
                0x000000000000e80c        0xc zephyr/subsys/bluetooth/controller/libsubsys__bluetooth__controller.a(radio.c.obj)
                0x000000000000e80c                radio_pkt_tx_set
 .text.radio_tx_ready_delay_get
                0x000000000000e818       0x12 zephyr/subsys/bluetooth/controller/libsubsys__bluetooth__controller.a(radio.c.obj)
                0x000000000000e818                radio_tx_ready_delay_get
 .text.radio_tx_chain_delay_get
                0x000000000000e82a        0x4 zephyr/subsys/bluetooth/controller/libsubsys__bluetooth__controller.a(radio.c.obj)
                0x000000000000e82a                radio_tx_chain_delay_get
 .text.radio_rx_ready_delay_get
                0x000000000000e82e        0x4 zephyr/subsys/bluetooth/controller/libsubsys__bluetooth__controller.a(radio.c.obj)
                0x000000000000e82e                radio_rx_ready_delay_get
 .text.radio_rx_chain_delay_get
                0x000000000000e832       0x1c zephyr/subsys/bluetooth/controller/libsubsys__bluetooth__controller.a(radio.c.obj)
                0x000000000000e832                radio_rx_chain_delay_get
 *fill*         0x000000000000e84e        0x2 
 .text.radio_rx_enable
                0x000000000000e850        0xc zephyr/subsys/bluetooth/controller/libsubsys__bluetooth__controller.a(radio.c.obj)
                0x000000000000e850                radio_rx_enable
 .text.radio_tx_enable
                0x000000000000e85c        0xc zephyr/subsys/bluetooth/controller/libsubsys__bluetooth__controller.a(radio.c.obj)
                0x000000000000e85c                radio_tx_enable
 .text.radio_disable
                0x000000000000e868       0x24 zephyr/subsys/bluetooth/controller/libsubsys__bluetooth__controller.a(radio.c.obj)
                0x000000000000e868                radio_disable
 .text.radio_status_reset
                0x000000000000e88c       0x18 zephyr/subsys/bluetooth/controller/libsubsys__bluetooth__controller.a(radio.c.obj)
                0x000000000000e88c                radio_status_reset
 .text.radio_is_ready
                0x000000000000e8a4       0x14 zephyr/subsys/bluetooth/controller/libsubsys__bluetooth__controller.a(radio.c.obj)
                0x000000000000e8a4                radio_is_ready
 .text.radio_is_done
                0x000000000000e8b8       0x14 zephyr/subsys/bluetooth/controller/libsubsys__bluetooth__controller.a(radio.c.obj)
                0x000000000000e8b8                radio_is_done
 .text.radio_is_idle
                0x000000000000e8cc       0x14 zephyr/subsys/bluetooth/controller/libsubsys__bluetooth__controller.a(radio.c.obj)
                0x000000000000e8cc                radio_is_idle
 .text.radio_crc_configure
                0x000000000000e8e0       0x18 zephyr/subsys/bluetooth/controller/libsubsys__bluetooth__controller.a(radio.c.obj)
                0x000000000000e8e0                radio_crc_configure
 .text.radio_crc_is_valid
                0x000000000000e8f8       0x14 zephyr/subsys/bluetooth/controller/libsubsys__bluetooth__controller.a(radio.c.obj)
                0x000000000000e8f8                radio_crc_is_valid
 .text.radio_pkt_empty_get
                0x000000000000e90c        0x8 zephyr/subsys/bluetooth/controller/libsubsys__bluetooth__controller.a(radio.c.obj)
                0x000000000000e90c                radio_pkt_empty_get
 .text.radio_pkt_scratch_get
                0x000000000000e914        0x8 zephyr/subsys/bluetooth/controller/libsubsys__bluetooth__controller.a(radio.c.obj)
                0x000000000000e914                radio_pkt_scratch_get
 .text.radio_switch_complete_and_rx
                0x000000000000e91c       0x18 zephyr/subsys/bluetooth/controller/libsubsys__bluetooth__controller.a(radio.c.obj)
                0x000000000000e91c                radio_switch_complete_and_rx
 .text.radio_switch_complete_and_tx
                0x000000000000e934       0x14 zephyr/subsys/bluetooth/controller/libsubsys__bluetooth__controller.a(radio.c.obj)
                0x000000000000e934                radio_switch_complete_and_tx
 .text.radio_switch_complete_and_disable
                0x000000000000e948       0x1c zephyr/subsys/bluetooth/controller/libsubsys__bluetooth__controller.a(radio.c.obj)
                0x000000000000e948                radio_switch_complete_and_disable
 .text.radio_rssi_measure
                0x000000000000e964       0x14 zephyr/subsys/bluetooth/controller/libsubsys__bluetooth__controller.a(radio.c.obj)
                0x000000000000e964                radio_rssi_measure
 .text.radio_rssi_get
                0x000000000000e978        0xc zephyr/subsys/bluetooth/controller/libsubsys__bluetooth__controller.a(radio.c.obj)
                0x000000000000e978                radio_rssi_get
 .text.radio_rssi_status_reset
                0x000000000000e984       0x10 zephyr/subsys/bluetooth/controller/libsubsys__bluetooth__controller.a(radio.c.obj)
                0x000000000000e984                radio_rssi_status_reset
 .text.radio_rssi_is_ready
                0x000000000000e994       0x14 zephyr/subsys/bluetooth/controller/libsubsys__bluetooth__controller.a(radio.c.obj)
                0x000000000000e994                radio_rssi_is_ready
 .text.radio_filter_configure
                0x000000000000e9a8       0x34 zephyr/subsys/bluetooth/controller/libsubsys__bluetooth__controller.a(radio.c.obj)
                0x000000000000e9a8                radio_filter_configure
 .text.radio_filter_disable
                0x000000000000e9dc       0x14 zephyr/subsys/bluetooth/controller/libsubsys__bluetooth__controller.a(radio.c.obj)
                0x000000000000e9dc                radio_filter_disable
 .text.radio_filter_status_reset
                0x000000000000e9f0       0x10 zephyr/subsys/bluetooth/controller/libsubsys__bluetooth__controller.a(radio.c.obj)
                0x000000000000e9f0                radio_filter_status_reset
 .text.radio_filter_has_match
                0x000000000000ea00       0x14 zephyr/subsys/bluetooth/controller/libsubsys__bluetooth__controller.a(radio.c.obj)
                0x000000000000ea00                radio_filter_has_match
 .text.radio_filter_match_get
                0x000000000000ea14        0xc zephyr/subsys/bluetooth/controller/libsubsys__bluetooth__controller.a(radio.c.obj)
                0x000000000000ea14                radio_filter_match_get
 .text.radio_bc_configure
                0x000000000000ea20       0x18 zephyr/subsys/bluetooth/controller/libsubsys__bluetooth__controller.a(radio.c.obj)
                0x000000000000ea20                radio_bc_configure
 .text.radio_tmr_status_reset
                0x000000000000ea38       0x20 zephyr/subsys/bluetooth/controller/libsubsys__bluetooth__controller.a(radio.c.obj)
                0x000000000000ea38                radio_tmr_status_reset
 .text.radio_tmr_tifs_set
                0x000000000000ea58       0x18 zephyr/subsys/bluetooth/controller/libsubsys__bluetooth__controller.a(radio.c.obj)
                0x000000000000ea58                radio_tmr_tifs_set
 .text.radio_tmr_start
                0x000000000000ea70       0xc0 zephyr/subsys/bluetooth/controller/libsubsys__bluetooth__controller.a(radio.c.obj)
                0x000000000000ea70                radio_tmr_start
 .text.radio_tmr_start_us
                0x000000000000eb30       0x10 zephyr/subsys/bluetooth/controller/libsubsys__bluetooth__controller.a(radio.c.obj)
                0x000000000000eb30                radio_tmr_start_us
 .text.radio_tmr_stop
                0x000000000000eb40       0x18 zephyr/subsys/bluetooth/controller/libsubsys__bluetooth__controller.a(radio.c.obj)
                0x000000000000eb40                radio_tmr_stop
 .text.radio_tmr_hcto_configure
                0x000000000000eb58       0x3c zephyr/subsys/bluetooth/controller/libsubsys__bluetooth__controller.a(radio.c.obj)
                0x000000000000eb58                radio_tmr_hcto_configure
 .text.radio_tmr_aa_capture
                0x000000000000eb94       0x38 zephyr/subsys/bluetooth/controller/libsubsys__bluetooth__controller.a(radio.c.obj)
                0x000000000000eb94                radio_tmr_aa_capture
 .text.radio_tmr_aa_get
                0x000000000000ebcc        0xc zephyr/subsys/bluetooth/controller/libsubsys__bluetooth__controller.a(radio.c.obj)
                0x000000000000ebcc                radio_tmr_aa_get
 .text.radio_tmr_aa_save
                0x000000000000ebd8        0xc zephyr/subsys/bluetooth/controller/libsubsys__bluetooth__controller.a(radio.c.obj)
                0x000000000000ebd8                radio_tmr_aa_save
 .text.radio_tmr_aa_restore
                0x000000000000ebe4        0xc zephyr/subsys/bluetooth/controller/libsubsys__bluetooth__controller.a(radio.c.obj)
                0x000000000000ebe4                radio_tmr_aa_restore
 .text.radio_tmr_ready_get
                0x000000000000ebf0        0xc zephyr/subsys/bluetooth/controller/libsubsys__bluetooth__controller.a(radio.c.obj)
                0x000000000000ebf0                radio_tmr_ready_get
 .text.radio_tmr_end_capture
                0x000000000000ebfc       0x24 zephyr/subsys/bluetooth/controller/libsubsys__bluetooth__controller.a(radio.c.obj)
                0x000000000000ebfc                radio_tmr_end_capture
 .text.radio_tmr_end_get
                0x000000000000ec20        0xc zephyr/subsys/bluetooth/controller/libsubsys__bluetooth__controller.a(radio.c.obj)
                0x000000000000ec20                radio_tmr_end_get
 .text.radio_tmr_tifs_base_get
                0x000000000000ec2c        0xc zephyr/subsys/bluetooth/controller/libsubsys__bluetooth__controller.a(radio.c.obj)
                0x000000000000ec2c                radio_tmr_tifs_base_get
 .text.radio_tmr_sample
                0x000000000000ec38        0xc zephyr/subsys/bluetooth/controller/libsubsys__bluetooth__controller.a(radio.c.obj)
                0x000000000000ec38                radio_tmr_sample
 .text.radio_tmr_sample_get
                0x000000000000ec44        0xc zephyr/subsys/bluetooth/controller/libsubsys__bluetooth__controller.a(radio.c.obj)
                0x000000000000ec44                radio_tmr_sample_get
 .text.radio_ccm_rx_pkt_set
                0x000000000000ec50       0xac zephyr/subsys/bluetooth/controller/libsubsys__bluetooth__controller.a(radio.c.obj)
                0x000000000000ec50                radio_ccm_rx_pkt_set
 .text.radio_ccm_tx_pkt_set
                0x000000000000ecfc       0x4c zephyr/subsys/bluetooth/controller/libsubsys__bluetooth__controller.a(radio.c.obj)
                0x000000000000ecfc                radio_ccm_tx_pkt_set
 .text.radio_ccm_is_done
                0x000000000000ed48       0x3c zephyr/subsys/bluetooth/controller/libsubsys__bluetooth__controller.a(radio.c.obj)
                0x000000000000ed48                radio_ccm_is_done
 .text.radio_ccm_mic_is_valid
                0x000000000000ed84       0x14 zephyr/subsys/bluetooth/controller/libsubsys__bluetooth__controller.a(radio.c.obj)
                0x000000000000ed84                radio_ccm_mic_is_valid
 .text.radio_ar_configure
                0x000000000000ed98       0x64 zephyr/subsys/bluetooth/controller/libsubsys__bluetooth__controller.a(radio.c.obj)
                0x000000000000ed98                radio_ar_configure
 .text.radio_ar_match_get
                0x000000000000edfc        0xc zephyr/subsys/bluetooth/controller/libsubsys__bluetooth__controller.a(radio.c.obj)
                0x000000000000edfc                radio_ar_match_get
 .text.radio_ar_status_reset
                0x000000000000ee08       0x18 zephyr/subsys/bluetooth/controller/libsubsys__bluetooth__controller.a(radio.c.obj)
                0x000000000000ee08                radio_ar_status_reset
 .text.radio_ar_has_match
                0x000000000000ee20       0x28 zephyr/subsys/bluetooth/controller/libsubsys__bluetooth__controller.a(radio.c.obj)
                0x000000000000ee20                radio_ar_has_match
 .text.mayfly_enable_cb
                0x000000000000ee48       0x28 zephyr/subsys/bluetooth/controller/libsubsys__bluetooth__controller.a(mayfly.c.obj)
                0x000000000000ee48                mayfly_enable_cb
 .text.mayfly_is_enabled
                0x000000000000ee70       0x28 zephyr/subsys/bluetooth/controller/libsubsys__bluetooth__controller.a(mayfly.c.obj)
                0x000000000000ee70                mayfly_is_enabled
 .text.mayfly_prio_is_equal
                0x000000000000ee98       0x22 zephyr/subsys/bluetooth/controller/libsubsys__bluetooth__controller.a(mayfly.c.obj)
                0x000000000000ee98                mayfly_prio_is_equal
 *fill*         0x000000000000eeba        0x2 
 .text.mayfly_pend
                0x000000000000eebc       0x28 zephyr/subsys/bluetooth/controller/libsubsys__bluetooth__controller.a(mayfly.c.obj)
                0x000000000000eebc                mayfly_pend
 .text.hal_ticker_instance0_caller_id_get
                0x000000000000eee4       0x2c zephyr/subsys/bluetooth/controller/libsubsys__bluetooth__controller.a(ticker.c.obj)
                0x000000000000eee4                hal_ticker_instance0_caller_id_get
 .text.hal_ticker_instance0_sched
                0x000000000000ef10       0x8c zephyr/subsys/bluetooth/controller/libsubsys__bluetooth__controller.a(ticker.c.obj)
                0x000000000000ef10                hal_ticker_instance0_sched
 .text.hal_ticker_instance0_trigger_set
                0x000000000000ef9c        0x8 zephyr/subsys/bluetooth/controller/libsubsys__bluetooth__controller.a(ticker.c.obj)
                0x000000000000ef9c                hal_ticker_instance0_trigger_set
 .text.fixed_data_unref
                0x000000000000efa4        0x2 zephyr/subsys/net/libsubsys__net.a(buf.c.obj)
 *fill*         0x000000000000efa6        0x2 
 .text.net_buf_id
                0x000000000000efa8       0x1c zephyr/subsys/net/libsubsys__net.a(buf.c.obj)
                0x000000000000efa8                net_buf_id
 .text.fixed_data_alloc
                0x000000000000efc4       0x2c zephyr/subsys/net/libsubsys__net.a(buf.c.obj)
 .text.net_buf_alloc_len
                0x000000000000eff0       0xd4 zephyr/subsys/net/libsubsys__net.a(buf.c.obj)
                0x000000000000eff0                net_buf_alloc_len
 .text.net_buf_alloc_fixed
                0x000000000000f0c4        0xc zephyr/subsys/net/libsubsys__net.a(buf.c.obj)
                0x000000000000f0c4                net_buf_alloc_fixed
 .text.net_buf_get
                0x000000000000f0d0       0x32 zephyr/subsys/net/libsubsys__net.a(buf.c.obj)
                0x000000000000f0d0                net_buf_get
 .text.net_buf_put
                0x000000000000f102       0x1a zephyr/subsys/net/libsubsys__net.a(buf.c.obj)
                0x000000000000f102                net_buf_put
 .text.net_buf_unref
                0x000000000000f11c       0x5c zephyr/subsys/net/libsubsys__net.a(buf.c.obj)
                0x000000000000f11c                net_buf_unref
 .text.net_buf_simple_add
                0x000000000000f178        0xc zephyr/subsys/net/libsubsys__net.a(buf.c.obj)
                0x000000000000f178                net_buf_simple_add
 .text.net_buf_simple_add_mem
                0x000000000000f184       0x12 zephyr/subsys/net/libsubsys__net.a(buf.c.obj)
                0x000000000000f184                net_buf_simple_add_mem
 .text.net_buf_simple_pull
                0x000000000000f196       0x10 zephyr/subsys/net/libsubsys__net.a(buf.c.obj)
                0x000000000000f196                net_buf_simple_pull
 .text.net_buf_simple_pull_u8
                0x000000000000f1a6       0x10 zephyr/subsys/net/libsubsys__net.a(buf.c.obj)
                0x000000000000f1a6                net_buf_simple_pull_u8
 .text.net_buf_simple_tailroom
                0x000000000000f1b6       0x10 zephyr/subsys/net/libsubsys__net.a(buf.c.obj)
                0x000000000000f1b6                net_buf_simple_tailroom
 *fill*         0x000000000000f1c6        0x2 
 .text._sys_device_do_config_level
                0x000000000000f1c8       0x28 zephyr/kernel/libkernel.a(device.c.obj)
                0x000000000000f1c8                _sys_device_do_config_level
 .text.device_get_binding
                0x000000000000f1f0       0x4c zephyr/kernel/libkernel.a(device.c.obj)
                0x000000000000f1f0                device_get_binding
 .text._sys_power_save_idle_exit
                0x000000000000f23c       0x18 zephyr/kernel/libkernel.a(idle.c.obj)
                0x000000000000f23c                _sys_power_save_idle_exit
 .text.idle     0x000000000000f254       0x48 zephyr/kernel/libkernel.a(idle.c.obj)
                0x000000000000f254                idle
 .text._bss_zero
                0x000000000000f29c       0x14 zephyr/kernel/libkernel.a(init.c.obj)
                0x000000000000f29c                _bss_zero
 .text._data_copy
                0x000000000000f2b0       0x18 zephyr/kernel/libkernel.a(init.c.obj)
                0x000000000000f2b0                _data_copy
 .text.bg_thread_main
                0x000000000000f2c8       0x28 zephyr/kernel/libkernel.a(init.c.obj)
 .text._Cstart  0x000000000000f2f0      0x100 zephyr/kernel/libkernel.a(init.c.obj)
                0x000000000000f2f0                _Cstart
 .text.get_bit_ptr
                0x000000000000f3f0       0x28 zephyr/kernel/libkernel.a(mempool.c.obj)
 .text.set_free_bit
                0x000000000000f418       0x1c zephyr/kernel/libkernel.a(mempool.c.obj)
 .text.init_static_pools
                0x000000000000f434       0xd0 zephyr/kernel/libkernel.a(mempool.c.obj)
                0x000000000000f434                init_static_pools
 .text.k_queue_init
                0x000000000000f504       0x10 zephyr/kernel/libkernel.a(queue.c.obj)
                0x000000000000f504                k_queue_init
 .text.k_queue_insert
                0x000000000000f514       0x52 zephyr/kernel/libkernel.a(queue.c.obj)
                0x000000000000f514                k_queue_insert
 .text.k_queue_append
                0x000000000000f566        0x8 zephyr/kernel/libkernel.a(queue.c.obj)
                0x000000000000f566                k_queue_append
 .text.k_queue_prepend
                0x000000000000f56e        0x8 zephyr/kernel/libkernel.a(queue.c.obj)
                0x000000000000f56e                k_queue_prepend
 .text.k_queue_append_list
                0x000000000000f576       0x38 zephyr/kernel/libkernel.a(queue.c.obj)
                0x000000000000f576                k_queue_append_list
 .text.k_queue_get
                0x000000000000f5ae       0x8c zephyr/kernel/libkernel.a(queue.c.obj)
                0x000000000000f5ae                k_queue_get
 *fill*         0x000000000000f63a        0x2 
 .text._add_thread_to_ready_q
                0x000000000000f63c       0x50 zephyr/kernel/libkernel.a(sched.c.obj)
                0x000000000000f63c                _add_thread_to_ready_q
 .text._ready_thread
                0x000000000000f68c       0x1a zephyr/kernel/libkernel.a(sched.c.obj)
 *fill*         0x000000000000f6a6        0x2 
 .text._add_timeout
                0x000000000000f6a8       0x9c zephyr/kernel/libkernel.a(sched.c.obj)
 .text._remove_thread_from_ready_q
                0x000000000000f744       0x68 zephyr/kernel/libkernel.a(sched.c.obj)
                0x000000000000f744                _remove_thread_from_ready_q
 .text._pend_thread
                0x000000000000f7ac       0x64 zephyr/kernel/libkernel.a(sched.c.obj)
                0x000000000000f7ac                _pend_thread
 .text._pend_current_thread
                0x000000000000f810       0x20 zephyr/kernel/libkernel.a(sched.c.obj)
                0x000000000000f810                _pend_current_thread
 .text.__must_switch_threads
                0x000000000000f830       0x2c zephyr/kernel/libkernel.a(sched.c.obj)
                0x000000000000f830                __must_switch_threads
 .text._reschedule_threads
                0x000000000000f85c       0x34 zephyr/kernel/libkernel.a(sched.c.obj)
                0x000000000000f85c                _reschedule_threads
 .text.k_sched_unlock
                0x000000000000f890       0x20 zephyr/kernel/libkernel.a(sched.c.obj)
                0x000000000000f890                k_sched_unlock
 .text._move_thread_to_end_of_prio_q
                0x000000000000f8b0       0x54 zephyr/kernel/libkernel.a(sched.c.obj)
                0x000000000000f8b0                _move_thread_to_end_of_prio_q
 .text._impl_k_yield
                0x000000000000f904       0x3c zephyr/kernel/libkernel.a(sched.c.obj)
                0x000000000000f904                _impl_k_yield
 .text._impl_k_current_get
                0x000000000000f940        0xc zephyr/kernel/libkernel.a(sched.c.obj)
                0x000000000000f940                _impl_k_current_get
 .text._is_thread_time_slicing
                0x000000000000f94c       0x48 zephyr/kernel/libkernel.a(sched.c.obj)
                0x000000000000f94c                _is_thread_time_slicing
 .text._update_time_slice_before_swap
                0x000000000000f994        0xc zephyr/kernel/libkernel.a(sched.c.obj)
                0x000000000000f994                _update_time_slice_before_swap
 .text._unpend_first_thread
                0x000000000000f9a0       0x48 zephyr/kernel/libkernel.a(sem.c.obj)
 .text._impl_k_sem_init
                0x000000000000f9e8       0x12 zephyr/kernel/libkernel.a(sem.c.obj)
                0x000000000000f9e8                _impl_k_sem_init
 *fill*         0x000000000000f9fa        0x2 
 .text._impl_k_sem_give
                0x000000000000f9fc       0xc0 zephyr/kernel/libkernel.a(sem.c.obj)
                0x000000000000f9fc                _impl_k_sem_give
 .text._impl_k_sem_take
                0x000000000000fabc       0x3c zephyr/kernel/libkernel.a(sem.c.obj)
                0x000000000000fabc                _impl_k_sem_take
 .text._impl_k_uptime_get_32
                0x000000000000faf8       0x14 zephyr/kernel/libkernel.a(sys_clock.c.obj)
                0x000000000000faf8                _impl_k_uptime_get_32
 .text._tick_get
                0x000000000000fb0c       0x1c zephyr/kernel/libkernel.a(sys_clock.c.obj)
                0x000000000000fb0c                sys_tick_get
                0x000000000000fb0c                _tick_get
 .text._impl_k_uptime_get
                0x000000000000fb28       0x16 zephyr/kernel/libkernel.a(sys_clock.c.obj)
                0x000000000000fb28                _impl_k_uptime_get
 *fill*         0x000000000000fb3e        0x2 
 .text._nano_sys_clock_tick_announce
                0x000000000000fb40      0x1b4 zephyr/kernel/libkernel.a(sys_clock.c.obj)
                0x000000000000fb40                _nano_sys_clock_tick_announce
 .text.k_sys_work_q_init
                0x000000000000fcf4       0x20 zephyr/kernel/libkernel.a(system_work_q.c.obj)
 .text._is_thread_ready
                0x000000000000fd14       0x14 zephyr/kernel/libkernel.a(thread.c.obj)
 .text._abort_timeout
                0x000000000000fd28       0x34 zephyr/kernel/libkernel.a(thread.c.obj)
 .text.schedule_new_thread.part.13
                0x000000000000fd5c       0x78 zephyr/kernel/libkernel.a(thread.c.obj)
 .text.k_is_in_isr
                0x000000000000fdd4       0x20 zephyr/kernel/libkernel.a(thread.c.obj)
                0x000000000000fdd4                k_is_in_isr
 .text._is_thread_essential
                0x000000000000fdf4       0x10 zephyr/kernel/libkernel.a(thread.c.obj)
                0x000000000000fdf4                _is_thread_essential
 .text._thread_entry
                0x000000000000fe04       0x14 zephyr/kernel/libkernel.a(thread.c.obj)
                0x000000000000fe04                _thread_entry
 .text._impl_k_thread_start
                0x000000000000fe18       0x54 zephyr/kernel/libkernel.a(thread.c.obj)
                0x000000000000fe18                _impl_k_thread_start
 .text._setup_new_thread
                0x000000000000fe6c        0x8 zephyr/kernel/libkernel.a(thread.c.obj)
                0x000000000000fe6c                _setup_new_thread
 .text._impl_k_thread_create
                0x000000000000fe74       0x3c zephyr/kernel/libkernel.a(thread.c.obj)
                0x000000000000fe74                _impl_k_thread_create
 .text._k_thread_single_abort
                0x000000000000feb0       0x4a zephyr/kernel/libkernel.a(thread.c.obj)
                0x000000000000feb0                _k_thread_single_abort
 *fill*         0x000000000000fefa        0x2 
 .text._init_static_threads
                0x000000000000fefc       0x94 zephyr/kernel/libkernel.a(thread.c.obj)
                0x000000000000fefc                _init_static_threads
 .text._init_thread_base
                0x000000000000ff90       0x18 zephyr/kernel/libkernel.a(thread.c.obj)
                0x000000000000ff90                _init_thread_base
 .text.k_work_submit_to_queue
                0x000000000000ffa8       0x30 zephyr/kernel/libkernel.a(work_q.c.obj)
 .text.work_timeout
                0x000000000000ffd8        0xa zephyr/kernel/libkernel.a(work_q.c.obj)
 .text.work_q_main
                0x000000000000ffe2       0x3e zephyr/kernel/libkernel.a(work_q.c.obj)
 .text.k_work_q_start
                0x0000000000010020       0x34 zephyr/kernel/libkernel.a(work_q.c.obj)
                0x0000000000010020                k_work_q_start
 .text.k_delayed_work_init
                0x0000000000010054       0x3c zephyr/kernel/libkernel.a(work_q.c.obj)
                0x0000000000010054                k_delayed_work_init
 .text.k_delayed_work_cancel
                0x0000000000010090       0xb4 zephyr/kernel/libkernel.a(work_q.c.obj)
                0x0000000000010090                k_delayed_work_cancel
 .text.k_delayed_work_submit_to_queue
                0x0000000000010144       0xac zephyr/kernel/libkernel.a(work_q.c.obj)
                0x0000000000010144                k_delayed_work_submit_to_queue
 .text._ready_thread
                0x00000000000101f0       0x1a zephyr/kernel/libkernel.a(timer.c.obj)
 .text._unpend_thread
                0x000000000001020a       0x14 zephyr/kernel/libkernel.a(timer.c.obj)
 *fill*         0x000000000001021e        0x2 
 .text._add_timeout.constprop.9
                0x0000000000010220       0x78 zephyr/kernel/libkernel.a(timer.c.obj)
 .text._timer_expiration_handler
                0x0000000000010298       0x5e zephyr/kernel/libkernel.a(timer.c.obj)
                0x0000000000010298                _timer_expiration_handler
 .text.sys_dlist_remove
                0x00000000000102f6        0xc zephyr/kernel/libkernel.a(poll.c.obj)
 .text.clear_event_registrations
                0x0000000000010302       0x42 zephyr/kernel/libkernel.a(poll.c.obj)
 .text.signal_poll_event
                0x0000000000010344       0xcc zephyr/kernel/libkernel.a(poll.c.obj)
 .text.add_event
                0x0000000000010410       0x58 zephyr/kernel/libkernel.a(poll.c.obj)
 .text.k_poll_event_init
                0x0000000000010468       0x26 zephyr/kernel/libkernel.a(poll.c.obj)
                0x0000000000010468                k_poll_event_init
 *fill*         0x000000000001048e        0x2 
 .text.k_poll   0x0000000000010490      0x148 zephyr/kernel/libkernel.a(poll.c.obj)
                0x0000000000010490                k_poll
 .text._handle_obj_poll_events
                0x00000000000105d8       0x24 zephyr/kernel/libkernel.a(poll.c.obj)
                0x00000000000105d8                _handle_obj_poll_events
 .text.k_poll_signal
                0x00000000000105fc       0x52 zephyr/kernel/libkernel.a(poll.c.obj)
                0x00000000000105fc                k_poll_signal
 .text._OffsetAbsSyms
                0x000000000001064e        0x2 zephyr/CMakeFiles/offsets.dir/arch/arm/core/offsets/offsets.c.obj
                0x000000000001064e                _OffsetAbsSyms
 *(.gnu.linkonce.t.*)
                0x0000000000010650                _image_text_end = .

.glue_7         0x0000000000010650        0x0
 .glue_7        0x0000000000010650        0x0 linker stubs

.glue_7t        0x0000000000010650        0x0
 .glue_7t       0x0000000000010650        0x0 linker stubs

.vfp11_veneer   0x0000000000010650        0x0
 .vfp11_veneer  0x0000000000010650        0x0 linker stubs

.v4_bx          0x0000000000010650        0x0
 .v4_bx         0x0000000000010650        0x0 linker stubs

.iplt           0x0000000000010650        0x0
 .iplt          0x0000000000010650        0x0 zephyr/CMakeFiles/kernel_elf.dir/isr_tables.c.obj

.igot.plt       0x0000000000010650        0x0
 .igot.plt      0x0000000000010650        0x0 zephyr/CMakeFiles/kernel_elf.dir/isr_tables.c.obj

.ARM.exidx      0x0000000000010650        0x8
                0x0000000000010650                __exidx_start = .
 *(.ARM.exidx* gnu.linkonce.armexidx.*)
 .ARM.exidx     0x0000000000010650        0x8 /home/swap/directory/sysroots/armv5-zephyr-eabi/usr/lib/arm-zephyr-eabi/6.2.0/armv7e-m/libgcc.a(_udivmoddi4.o)
                0x0000000000010658                __exidx_end = .
                0x0000000000010658                _image_rodata_start = .

devconfig       0x0000000000010658       0x90
                0x0000000000010658                __devconfig_start = .
 *(.devconfig.*)
 .devconfig.init
                0x0000000000010658        0xc libapp.a(main.c.obj)
 .devconfig.init
                0x0000000000010664        0xc zephyr/libzephyr.a(soc.c.obj)
 .devconfig.init
                0x0000000000010670        0xc zephyr/libzephyr.a(arm_mpu.c.obj)
 .devconfig.init
                0x000000000001067c       0x18 zephyr/libzephyr.a(nrf5_power_clock.c.obj)
 .devconfig.init
                0x0000000000010694        0xc zephyr/libzephyr.a(gpio_nrf5.c.obj)
 .devconfig.init
                0x00000000000106a0        0xc zephyr/libzephyr.a(uart_nrf5.c.obj)
 .devconfig.init
                0x00000000000106ac        0xc zephyr/libzephyr.a(entropy_nrf5.c.obj)
 .devconfig.init
                0x00000000000106b8        0xc zephyr/libzephyr.a(sys_clock_init.c.obj)
 .devconfig.init
                0x00000000000106c4        0xc zephyr/subsys/bluetooth/controller/libsubsys__bluetooth__controller.a(hci_driver.c.obj)
 .devconfig.init
                0x00000000000106d0        0xc zephyr/kernel/libkernel.a(mempool.c.obj)
 .devconfig.init
                0x00000000000106dc        0xc zephyr/kernel/libkernel.a(system_work_q.c.obj)
 *(SORT(.devconfig*))
                0x00000000000106e8                __devconfig_end = .

net_l2          0x00000000000106e8        0x0
                0x00000000000106e8                __net_l2_start = .
 *(.net_l2.init)
 *(SORT(.net_l2.init*))
                0x00000000000106e8                __net_l2_end = .

rodata          0x00000000000106e8      0x670
 *(.rodata)
 .rodata        0x00000000000106e8       0x1a zephyr/subsys/bluetooth/controller/libsubsys__bluetooth__controller.a(ctrl.c.obj)
 *(.rodata.*)
 .rodata.hci_uart_init.str1.1
                0x0000000000010702        0x7 libapp.a(main.c.obj)
 *fill*         0x0000000000010709        0x3 
 .rodata.net_buf_fixed_acl_tx_pool
                0x000000000001070c        0x8 libapp.a(main.c.obj)
 .rodata.net_buf_fixed_alloc_acl_tx_pool
                0x0000000000010714        0x8 libapp.a(main.c.obj)
 .rodata.net_buf_fixed_alloc_cmd_tx_pool
                0x000000000001071c        0x8 libapp.a(main.c.obj)
 .rodata.net_buf_fixed_cmd_tx_pool
                0x0000000000010724        0x8 libapp.a(main.c.obj)
 .rodata.str1.1
                0x000000000001072c        0x9 libapp.a(main.c.obj)
 .rodata.str1.1
                0x0000000000010735       0x2c zephyr/libzephyr.a(mpu_regions.c.obj)
 .rodata.str1.1
                0x0000000000010761       0x2c zephyr/libzephyr.a(soc.c.obj)
                                          0x1 (size before relaxing)
 .rodata.str1.1
                0x0000000000010761        0x1 zephyr/libzephyr.a(arm_mpu.c.obj)
 .rodata.sys_rand32_get.str1.1
                0x0000000000010761        0xa zephyr/libzephyr.a(rand32_entropy_device.c.obj)
 *fill*         0x000000000001076b        0x1 
 .rodata._k32src_clock_control_api
                0x000000000001076c        0xc zephyr/libzephyr.a(nrf5_power_clock.c.obj)
 .rodata._m16src_clock_control_api
                0x0000000000010778        0xc zephyr/libzephyr.a(nrf5_power_clock.c.obj)
 .rodata.str1.1
                0x0000000000010784       0x16 zephyr/libzephyr.a(nrf5_power_clock.c.obj)
 *fill*         0x000000000001079a        0x2 
 .rodata.drive_strength.8954
                0x000000000001079c       0x40 zephyr/libzephyr.a(gpio_nrf5.c.obj)
 .rodata.gpio_nrf5_P0_cfg
                0x00000000000107dc        0xc zephyr/libzephyr.a(gpio_nrf5.c.obj)
 .rodata.gpio_nrf5_drv_api_funcs
                0x00000000000107e8       0x1c zephyr/libzephyr.a(gpio_nrf5.c.obj)
 .rodata.str1.1
                0x0000000000010804        0x7 zephyr/libzephyr.a(gpio_nrf5.c.obj)
 .rodata.str1.1
                0x000000000001080b        0x7 zephyr/libzephyr.a(uart_nrf5.c.obj)
 *fill*         0x000000000001080b        0x1 
 .rodata.uart_nrf5_dev_cfg_0
                0x000000000001080c        0xc zephyr/libzephyr.a(uart_nrf5.c.obj)
 .rodata.uart_nrf5_driver_api
                0x0000000000010818       0x44 zephyr/libzephyr.a(uart_nrf5.c.obj)
 .rodata.uart_nrf5_init.str1.1
                0x000000000001085c        0x7 zephyr/libzephyr.a(uart_nrf5.c.obj)
 .rodata.entropy_nrf5_api_funcs
                0x000000000001085c        0x4 zephyr/libzephyr.a(entropy_nrf5.c.obj)
 .rodata.str1.1
                0x0000000000010860        0xa zephyr/libzephyr.a(entropy_nrf5.c.obj)
 .rodata.str1.1
                0x0000000000010860        0xa zephyr/libzephyr.a(sys_clock_init.c.obj)
 .rodata._sys_clock_driver_init.str1.1
                0x000000000001086a        0xb zephyr/libzephyr.a(nrf_rtc_timer.c.obj)
 *fill*         0x000000000001086a        0x2 
 .rodata.net_buf_fixed_alloc_hci_rx_pool
                0x000000000001086c        0x8 zephyr/subsys/bluetooth/host/libsubsys__bluetooth__host.a(hci_raw.c.obj)
 .rodata.net_buf_fixed_hci_rx_pool
                0x0000000000010874        0x8 zephyr/subsys/bluetooth/host/libsubsys__bluetooth__host.a(hci_raw.c.obj)
 .rodata.ticker_job.str1.1
                0x000000000001087c       0x3e zephyr/subsys/bluetooth/controller/libsubsys__bluetooth__controller.a(ticker.c.obj)
 *fill*         0x00000000000108ba        0x2 
 .rodata.drv    0x00000000000108bc       0x10 zephyr/subsys/bluetooth/controller/libsubsys__bluetooth__controller.a(hci_driver.c.obj)
 .rodata.encode_node.str1.1
                0x00000000000108cc       0x3f zephyr/subsys/bluetooth/controller/libsubsys__bluetooth__controller.a(hci_driver.c.obj)
 .rodata.str1.1
                0x000000000001090b        0xb zephyr/subsys/bluetooth/controller/libsubsys__bluetooth__controller.a(hci_driver.c.obj)
                                          0xc (size before relaxing)
 .rodata.CSWTCH.256
                0x0000000000010916        0xb zephyr/subsys/bluetooth/controller/libsubsys__bluetooth__controller.a(hci.c.obj)
 .rodata.bt_addr_le_to_str.isra.81.str1.1
                0x0000000000010921       0x22 zephyr/subsys/bluetooth/controller/libsubsys__bluetooth__controller.a(hci.c.obj)
 .rodata.hci_cmd_handle.str1.1
                0x0000000000010943       0x28 zephyr/subsys/bluetooth/controller/libsubsys__bluetooth__controller.a(hci.c.obj)
 .rodata.le_advertising_report.str1.1
                0x000000000001096b       0x38 zephyr/subsys/bluetooth/controller/libsubsys__bluetooth__controller.a(hci.c.obj)
 *fill*         0x00000000000109a3        0x1 
 .rodata.gc_lookup_ppm
                0x00000000000109a4       0x10 zephyr/subsys/bluetooth/controller/libsubsys__bluetooth__controller.a(ctrl.c.obj)
 .rodata.ticker_op_latency_cancelled.str1.1
                0x00000000000109b4       0x3b zephyr/subsys/bluetooth/controller/libsubsys__bluetooth__controller.a(ctrl.c.obj)
 .rodata.ll_init.str1.1
                0x00000000000109ef       0x39 zephyr/subsys/bluetooth/controller/libsubsys__bluetooth__controller.a(ll.c.obj)
                                         0x59 (size before relaxing)
 .rodata.prbs15
                0x0000000000010a28       0xff zephyr/subsys/bluetooth/controller/libsubsys__bluetooth__controller.a(ll_test.c.obj)
 .rodata.prbs9  0x0000000000010b27       0xff zephyr/subsys/bluetooth/controller/libsubsys__bluetooth__controller.a(ll_test.c.obj)
 *fill*         0x0000000000010c26        0x2 
 .rodata.test_sync_word
                0x0000000000010c28        0x4 zephyr/subsys/bluetooth/controller/libsubsys__bluetooth__controller.a(ll_test.c.obj)
 .rodata.ctrl_rl_idx.str1.1
                0x0000000000010c2c       0x40 zephyr/subsys/bluetooth/controller/libsubsys__bluetooth__controller.a(ll_filter.c.obj)
 .rodata.cntr_stop.str1.1
                0x0000000000010c6c       0x3e zephyr/subsys/bluetooth/controller/libsubsys__bluetooth__controller.a(cntr.c.obj)
 .rodata.mayfly_enable_cb.str1.1
                0x0000000000010caa       0x40 zephyr/subsys/bluetooth/controller/libsubsys__bluetooth__controller.a(mayfly.c.obj)
 .rodata.caller_id_lut
                0x0000000000010cea        0x4 zephyr/subsys/bluetooth/controller/libsubsys__bluetooth__controller.a(ticker.c.obj)
 .rodata.hal_ticker_instance0_caller_id_get.str1.1
                0x0000000000010cee       0x40 zephyr/subsys/bluetooth/controller/libsubsys__bluetooth__controller.a(ticker.c.obj)
 *fill*         0x0000000000010d2e        0x2 
 .rodata.net_buf_fixed_cb
                0x0000000000010d30        0xc zephyr/subsys/net/libsubsys__net.a(buf.c.obj)
                0x0000000000010d30                net_buf_fixed_cb
 .rodata.config_levels
                0x0000000000010d3c       0x14 zephyr/kernel/libkernel.a(device.c.obj)
 .rodata._k_neg_eagain
                0x0000000000010d50        0x4 zephyr/kernel/libkernel.a(errno.c.obj)
                0x0000000000010d50                _k_neg_eagain
 .rodata._idle_thread
                0x0000000000010d54        0x4 zephyr/kernel/libkernel.a(init.c.obj)
                0x0000000000010d54                _idle_thread
 .rodata.str1.1
                0x0000000000010d58        0x1 zephyr/kernel/libkernel.a(mempool.c.obj)
 .rodata.str1.1
                0x0000000000010d58        0x1 zephyr/kernel/libkernel.a(system_work_q.c.obj)
 *(.gnu.linkonce.r.*)
                0x0000000000010d5c                . = ALIGN (0x4)
                0x0000000000010d5c                _image_rodata_end = .
                0x0000000000010d5c                _image_rom_end = .

.rel.dyn        0x0000000000010d58        0x0
 .rel.iplt      0x0000000000010d58        0x0 zephyr/CMakeFiles/kernel_elf.dir/isr_tables.c.obj

bss             0x0000000020000000     0x3d18
                0x0000000020000000                . = ALIGN (0x4)
                0x0000000020000000                __bss_start = .
                0x0000000020000000                _image_ram_start = .
                0x0000000020000000                __kernel_ram_start = .
 *(.bss)
 *(.bss.*)
 .bss.buf.7862  0x0000000020000000        0x4 libapp.a(main.c.obj)
 .bss.hci_uart_dev
                0x0000000020000004        0x4 libapp.a(main.c.obj)
 .bss.remaining.7863
                0x0000000020000008        0x4 libapp.a(main.c.obj)
 .bss.tx_thread_data
                0x000000002000000c       0x68 libapp.a(main.c.obj)
 .bss.arm_mpu_enabled
                0x0000000020000074        0x1 zephyr/libzephyr.a(arm_mpu.c.obj)
 *fill*         0x0000000020000075        0x3 
 .bss.entropy_driver
                0x0000000020000078        0x4 zephyr/libzephyr.a(rand32_entropy_device.c.obj)
 .bss.k32src_initialized
                0x000000002000007c        0x1 zephyr/libzephyr.a(nrf5_power_clock.c.obj)
 .bss.m16src_grd
                0x000000002000007d        0x1 zephyr/libzephyr.a(nrf5_power_clock.c.obj)
 .bss.m16src_ref
                0x000000002000007e        0x1 zephyr/libzephyr.a(nrf5_power_clock.c.obj)
 *fill*         0x000000002000007f        0x1 
 .bss.gpio_data_P0
                0x0000000020000080       0x10 zephyr/libzephyr.a(gpio_nrf5.c.obj)
 .bss.entropy_nrf5_data
                0x0000000020000090       0x50 zephyr/libzephyr.a(entropy_nrf5.c.obj)
 .bss.expected_sys_ticks
                0x00000000200000e0        0x4 zephyr/libzephyr.a(nrf_rtc_timer.c.obj)
 .bss.rtc_past  0x00000000200000e4        0x4 zephyr/libzephyr.a(nrf_rtc_timer.c.obj)
 .bss.raw_rx    0x00000000200000e8        0x4 zephyr/subsys/bluetooth/host/libsubsys__bluetooth__host.a(hci_raw.c.obj)
 .bss.mfl       0x00000000200000ec       0x80 zephyr/subsys/bluetooth/controller/libsubsys__bluetooth__controller.a(mayfly.c.obj)
 .bss.mft       0x000000002000016c       0xc0 zephyr/subsys/bluetooth/controller/libsubsys__bluetooth__controller.a(mayfly.c.obj)
 .bss._instance
                0x000000002000022c       0x58 zephyr/subsys/bluetooth/controller/libsubsys__bluetooth__controller.a(ticker.c.obj)
 .bss.pub_addr  0x0000000020000284        0x6 zephyr/subsys/bluetooth/controller/libsubsys__bluetooth__controller.a(ll_addr.c.obj)
 .bss.rnd_addr  0x000000002000028a        0x6 zephyr/subsys/bluetooth/controller/libsubsys__bluetooth__controller.a(ll_addr.c.obj)
 .bss.hbuf_count
                0x0000000020000290        0x4 zephyr/subsys/bluetooth/controller/libsubsys__bluetooth__controller.a(hci_driver.c.obj)
 .bss.hbuf_pend
                0x0000000020000294        0x8 zephyr/subsys/bluetooth/controller/libsubsys__bluetooth__controller.a(hci_driver.c.obj)
 .bss._opcode   0x000000002000029c        0x2 zephyr/subsys/bluetooth/controller/libsubsys__bluetooth__controller.a(hci.c.obj)
 *fill*         0x000000002000029e        0x2 
 .bss.conn_count
                0x00000000200002a0        0x4 zephyr/subsys/bluetooth/controller/libsubsys__bluetooth__controller.a(hci.c.obj)
 .bss.dup_count
                0x00000000200002a4        0x4 zephyr/subsys/bluetooth/controller/libsubsys__bluetooth__controller.a(hci.c.obj)
 .bss.dup_curr  0x00000000200002a8        0x4 zephyr/subsys/bluetooth/controller/libsubsys__bluetooth__controller.a(hci.c.obj)
 .bss.dup_filter
                0x00000000200002ac       0x80 zephyr/subsys/bluetooth/controller/libsubsys__bluetooth__controller.a(hci.c.obj)
 *fill*         0x000000002000032c        0x4 
 .bss.event_mask_page_2
                0x0000000020000330        0x8 zephyr/subsys/bluetooth/controller/libsubsys__bluetooth__controller.a(hci.c.obj)
 .bss.hbuf_signal
                0x0000000020000338        0x4 zephyr/subsys/bluetooth/controller/libsubsys__bluetooth__controller.a(hci.c.obj)
 *fill*         0x000000002000033c        0x4 
 .bss._radio    0x0000000020000340      0x798 zephyr/subsys/bluetooth/controller/libsubsys__bluetooth__controller.a(ctrl.c.obj)
 .bss.aux_scan  0x0000000020000ad8        0x1 zephyr/subsys/bluetooth/controller/libsubsys__bluetooth__controller.a(ctrl.c.obj)
 .bss.chan_case
                0x0000000020000ad9        0x1 zephyr/subsys/bluetooth/controller/libsubsys__bluetooth__controller.a(ctrl.c.obj)
 .bss.count     0x0000000020000ada        0x1 zephyr/subsys/bluetooth/controller/libsubsys__bluetooth__controller.a(ctrl.c.obj)
 .bss.counter   0x0000000020000adb        0x1 zephyr/subsys/bluetooth/controller/libsubsys__bluetooth__controller.a(ctrl.c.obj)
 *fill*         0x0000000020000adc        0x4 
 .bss.final_dynamic_cal
                0x0000000020000ae0        0x8 zephyr/subsys/bluetooth/controller/libsubsys__bluetooth__controller.a(ctrl.c.obj)
                0x0000000020000ae0                final_dynamic_cal
 .bss.last_dynamic_cal
                0x0000000020000ae8        0x8 zephyr/subsys/bluetooth/controller/libsubsys__bluetooth__controller.a(ctrl.c.obj)
                0x0000000020000ae8                last_dynamic_cal
 .bss.link_inact.12123
                0x0000000020000af0        0x8 zephyr/subsys/bluetooth/controller/libsubsys__bluetooth__controller.a(ctrl.c.obj)
 .bss.link_inact.12637
                0x0000000020000af8        0x8 zephyr/subsys/bluetooth/controller/libsubsys__bluetooth__controller.a(ctrl.c.obj)
 .bss.link_radio.12137
                0x0000000020000b00        0x8 zephyr/subsys/bluetooth/controller/libsubsys__bluetooth__controller.a(ctrl.c.obj)
 .bss.link_radio.12645
                0x0000000020000b08        0x8 zephyr/subsys/bluetooth/controller/libsubsys__bluetooth__controller.a(ctrl.c.obj)
 .bss.link_xtal.12130
                0x0000000020000b10        0x8 zephyr/subsys/bluetooth/controller/libsubsys__bluetooth__controller.a(ctrl.c.obj)
 .bss.link_xtal.12641
                0x0000000020000b18        0x8 zephyr/subsys/bluetooth/controller/libsubsys__bluetooth__controller.a(ctrl.c.obj)
 .bss.pckt_send
                0x0000000020000b20        0x1 zephyr/subsys/bluetooth/controller/libsubsys__bluetooth__controller.a(ctrl.c.obj)
 .bss.s_active.11693
                0x0000000020000b21        0x1 zephyr/subsys/bluetooth/controller/libsubsys__bluetooth__controller.a(ctrl.c.obj)
 *fill*         0x0000000020000b22        0x2 
 .bss.s_link.11700
                0x0000000020000b24        0x8 zephyr/subsys/bluetooth/controller/libsubsys__bluetooth__controller.a(ctrl.c.obj)
 .bss.s_link.11712
                0x0000000020000b2c        0x8 zephyr/subsys/bluetooth/controller/libsubsys__bluetooth__controller.a(ctrl.c.obj)
 .bss.s_link.11724
                0x0000000020000b34        0x8 zephyr/subsys/bluetooth/controller/libsubsys__bluetooth__controller.a(ctrl.c.obj)
 .bss.s_link.11735
                0x0000000020000b3c        0x8 zephyr/subsys/bluetooth/controller/libsubsys__bluetooth__controller.a(ctrl.c.obj)
 .bss.s_link.11738
                0x0000000020000b44       0x10 zephyr/subsys/bluetooth/controller/libsubsys__bluetooth__controller.a(ctrl.c.obj)
 .bss.s_link.11922
                0x0000000020000b54        0x8 zephyr/subsys/bluetooth/controller/libsubsys__bluetooth__controller.a(ctrl.c.obj)
 .bss.s_link.11942
                0x0000000020000b5c        0x8 zephyr/subsys/bluetooth/controller/libsubsys__bluetooth__controller.a(ctrl.c.obj)
 .bss.s_link.12143
                0x0000000020000b64        0x8 zephyr/subsys/bluetooth/controller/libsubsys__bluetooth__controller.a(ctrl.c.obj)
 .bss.s_link.12159
                0x0000000020000b6c        0x8 zephyr/subsys/bluetooth/controller/libsubsys__bluetooth__controller.a(ctrl.c.obj)
 .bss.s_link.12216
                0x0000000020000b74        0x8 zephyr/subsys/bluetooth/controller/libsubsys__bluetooth__controller.a(ctrl.c.obj)
 .bss.s_link.12277
                0x0000000020000b7c        0x8 zephyr/subsys/bluetooth/controller/libsubsys__bluetooth__controller.a(ctrl.c.obj)
 .bss.s_xtal_retained.11734
                0x0000000020000b84        0x1 zephyr/subsys/bluetooth/controller/libsubsys__bluetooth__controller.a(ctrl.c.obj)
 *fill*         0x0000000020000b85        0x3 
 .bss._radio    0x0000000020000b88     0x219c zephyr/subsys/bluetooth/controller/libsubsys__bluetooth__controller.a(ll.c.obj)
 .bss._ticker_nodes
                0x0000000020002d24      0x398 zephyr/subsys/bluetooth/controller/libsubsys__bluetooth__controller.a(ll.c.obj)
 .bss._ticker_user_ops
                0x00000000200030bc      0x270 zephyr/subsys/bluetooth/controller/libsubsys__bluetooth__controller.a(ll.c.obj)
 .bss._ticker_users
                0x000000002000332c       0x20 zephyr/subsys/bluetooth/controller/libsubsys__bluetooth__controller.a(ll.c.obj)
 .bss.sem_recv  0x000000002000334c        0x4 zephyr/subsys/bluetooth/controller/libsubsys__bluetooth__controller.a(ll.c.obj)
 .bss.aux_ptr_len
                0x0000000020003350        0x1 zephyr/subsys/bluetooth/controller/libsubsys__bluetooth__controller.a(ll_adv.c.obj)
 *fill*         0x0000000020003351        0x1 
 .bss.ll_adv    0x0000000020003352        0xe zephyr/subsys/bluetooth/controller/libsubsys__bluetooth__controller.a(ll_adv.c.obj)
 .bss.set_data_ptr
                0x0000000020003360        0x4 zephyr/subsys/bluetooth/controller/libsubsys__bluetooth__controller.a(ll_adv.c.obj)
 .bss.ll_scan   0x0000000020003364        0x6 zephyr/subsys/bluetooth/controller/libsubsys__bluetooth__controller.a(ll_scan.c.obj)
 .bss.started   0x000000002000336a        0x1 zephyr/subsys/bluetooth/controller/libsubsys__bluetooth__controller.a(ll_test.c.obj)
 *fill*         0x000000002000336b        0x1 
 .bss.test_num_rx
                0x000000002000336c        0x2 zephyr/subsys/bluetooth/controller/libsubsys__bluetooth__controller.a(ll_test.c.obj)
 .bss.test_phy  0x000000002000336e        0x1 zephyr/subsys/bluetooth/controller/libsubsys__bluetooth__controller.a(ll_test.c.obj)
 .bss.test_phy_flags
                0x000000002000336f        0x1 zephyr/subsys/bluetooth/controller/libsubsys__bluetooth__controller.a(ll_test.c.obj)
 .bss.tx_ack    0x0000000020003370        0x1 zephyr/subsys/bluetooth/controller/libsubsys__bluetooth__controller.a(ll_test.c.obj)
 .bss.tx_req    0x0000000020003371        0x1 zephyr/subsys/bluetooth/controller/libsubsys__bluetooth__controller.a(ll_test.c.obj)
 .bss.local_rpas
                0x0000000020003372       0x30 zephyr/subsys/bluetooth/controller/libsubsys__bluetooth__controller.a(ll_filter.c.obj)
 .bss.peer_irk_count
                0x00000000200033a2        0x1 zephyr/subsys/bluetooth/controller/libsubsys__bluetooth__controller.a(ll_filter.c.obj)
 .bss.peer_irk_rl_ids
                0x00000000200033a3        0x8 zephyr/subsys/bluetooth/controller/libsubsys__bluetooth__controller.a(ll_filter.c.obj)
 .bss.peer_irks
                0x00000000200033ab       0x80 zephyr/subsys/bluetooth/controller/libsubsys__bluetooth__controller.a(ll_filter.c.obj)
 *fill*         0x000000002000342b        0x1 
 .bss.rl        0x000000002000342c      0x140 zephyr/subsys/bluetooth/controller/libsubsys__bluetooth__controller.a(ll_filter.c.obj)
 .bss.rl_enable
                0x000000002000356c        0x1 zephyr/subsys/bluetooth/controller/libsubsys__bluetooth__controller.a(ll_filter.c.obj)
 .bss.rl_filter
                0x000000002000356d       0x32 zephyr/subsys/bluetooth/controller/libsubsys__bluetooth__controller.a(ll_filter.c.obj)
 .bss.wl        0x000000002000359f       0x40 zephyr/subsys/bluetooth/controller/libsubsys__bluetooth__controller.a(ll_filter.c.obj)
 .bss.wl_filter
                0x00000000200035df       0x32 zephyr/subsys/bluetooth/controller/libsubsys__bluetooth__controller.a(ll_filter.c.obj)
 .bss._refcount
                0x0000000020003611        0x1 zephyr/subsys/bluetooth/controller/libsubsys__bluetooth__controller.a(cntr.c.obj)
 *fill*         0x0000000020003612        0x2 
 .bss._aar_scratch
                0x0000000020003614        0x3 zephyr/subsys/bluetooth/controller/libsubsys__bluetooth__controller.a(radio.c.obj)
 *fill*         0x0000000020003617        0x1 
 .bss._ccm_scratch
                0x0000000020003618      0x10b zephyr/subsys/bluetooth/controller/libsubsys__bluetooth__controller.a(radio.c.obj)
 *fill*         0x0000000020003723        0x1 
 .bss._pkt_empty
                0x0000000020003724        0x3 zephyr/subsys/bluetooth/controller/libsubsys__bluetooth__controller.a(radio.c.obj)
 *fill*         0x0000000020003727        0x1 
 .bss._pkt_scratch
                0x0000000020003728      0x102 zephyr/subsys/bluetooth/controller/libsubsys__bluetooth__controller.a(radio.c.obj)
 *fill*         0x000000002000382a        0x2 
 .bss.radio_tmr_aa
                0x000000002000382c        0x4 zephyr/subsys/bluetooth/controller/libsubsys__bluetooth__controller.a(radio.c.obj)
 .bss.sfp_radio_isr
                0x0000000020003830        0x4 zephyr/subsys/bluetooth/controller/libsubsys__bluetooth__controller.a(radio.c.obj)
 .bss.sw_tifs_toggle
                0x0000000020003834        0x1 zephyr/subsys/bluetooth/controller/libsubsys__bluetooth__controller.a(radio.c.obj)
 *fill*         0x0000000020003835        0x3 
 .bss.link.7409
                0x0000000020003838        0x8 zephyr/subsys/bluetooth/controller/libsubsys__bluetooth__controller.a(ticker.c.obj)
 .bss.link.7416
                0x0000000020003840        0x8 zephyr/subsys/bluetooth/controller/libsubsys__bluetooth__controller.a(ticker.c.obj)
 .bss.link.7422
                0x0000000020003848        0x8 zephyr/subsys/bluetooth/controller/libsubsys__bluetooth__controller.a(ticker.c.obj)
 .bss.link.7426
                0x0000000020003850        0x8 zephyr/subsys/bluetooth/controller/libsubsys__bluetooth__controller.a(ticker.c.obj)
 .bss.link.7431
                0x0000000020003858        0x8 zephyr/subsys/bluetooth/controller/libsubsys__bluetooth__controller.a(ticker.c.obj)
 .bss._idle_thread_s
                0x0000000020003860       0x68 zephyr/kernel/libkernel.a(init.c.obj)
 .bss._main_thread_s
                0x00000000200038c8       0x68 zephyr/kernel/libkernel.a(init.c.obj)
 .bss._kernel   0x0000000020003930      0x124 zephyr/kernel/libkernel.a(sched.c.obj)
                0x0000000020003930                _kernel
 .bss._time_slice_duration
                0x0000000020003a54        0x4 zephyr/kernel/libkernel.a(sys_clock.c.obj)
                0x0000000020003a54                _time_slice_duration
 .bss._time_slice_prio_ceiling
                0x0000000020003a58        0x4 zephyr/kernel/libkernel.a(sys_clock.c.obj)
                0x0000000020003a58                _time_slice_prio_ceiling
 *(COMMON)
 COMMON         0x0000000020003a5c        0x4 zephyr/subsys/bluetooth/host/libsubsys__bluetooth__host.a(hci_raw.c.obj)
                0x0000000020003a5c                bt_dev
 COMMON         0x0000000020003a60       0xd0 zephyr/subsys/bluetooth/controller/libsubsys__bluetooth__controller.a(hci_driver.c.obj)
                0x0000000020003a60                recv_thread_data
                0x0000000020003ac8                prio_recv_thread_data
 COMMON         0x0000000020003b30       0x30 zephyr/subsys/bluetooth/controller/libsubsys__bluetooth__controller.a(hci.c.obj)
                0x0000000020003b30                hci_hbuf_pend
                0x0000000020003b50                hci_hbuf_total
                0x0000000020003b54                hci_hbuf_sent
                0x0000000020003b58                hci_state_mask
                0x0000000020003b5c                hci_hbuf_acked
 COMMON         0x0000000020003b60       0xf4 zephyr/subsys/bluetooth/controller/libsubsys__bluetooth__controller.a(ctrl.c.obj)
                0x0000000020003b60                diffns
                0x0000000020003b64                us_spent_aux
                0x0000000020003b68                start_time_int
                0x0000000020003b70                start_dynamic_cal
                0x0000000020003b78                start_time37
                0x0000000020003b80                aux_scanning
                0x0000000020003be0                Time_difference_ticker1
                0x0000000020003be4                stop_time_37
                0x0000000020003be8                stop_time_39
                0x0000000020003bf0                Time_difference_ticker
                0x0000000020003bf8                stop_time_int
                0x0000000020003bfc                stop_time_ticker1
                0x0000000020003c00                start_time
                0x0000000020003c08                stop_dynamic_cal
                0x0000000020003c10                us_spent_aux1
                0x0000000020003c14                scan_aux_ptr
                0x0000000020003c18                us_spent_39
                0x0000000020003c1c                stop_time_ticker
                0x0000000020003c20                start_time_ticker
                0x0000000020003c24                start_time_5
                0x0000000020003c28                event_time_int
                0x0000000020003c2c                diff
                0x0000000020003c30                us_spent_38
                0x0000000020003c34                cycles_spent_37
                0x0000000020003c38                Time_difference
                0x0000000020003c3c                stop_time_aux
                0x0000000020003c40                event_time_diff
                0x0000000020003c44                stop_time_aux1
                0x0000000020003c48                us_spent_5
                0x0000000020003c4c                Time_difference_int
                0x0000000020003c50                us_spent_37
 *fill*         0x0000000020003c54        0x4 
 COMMON         0x0000000020003c58       0x38 zephyr/subsys/bluetooth/controller/libsubsys__bluetooth__controller.a(ll_filter.c.obj)
                0x0000000020003c58                rpa_last_ms
                0x0000000020003c60                wl_anon
                0x0000000020003c64                rpa_work
                0x0000000020003c8c                rpa_timeout_ms
 COMMON         0x0000000020003c90       0x10 zephyr/kernel/libkernel.a(sys_clock.c.obj)
                0x0000000020003c90                _handling_timeouts
                0x0000000020003c94                _time_slice_elapsed
                0x0000000020003c98                _sys_clock_tick_count
 COMMON         0x0000000020003ca0       0x78 zephyr/kernel/libkernel.a(system_work_q.c.obj)
                0x0000000020003ca0                k_sys_work_q
 *(.kernel_bss.*)
                0x0000000020003d18                __bss_end = ALIGN (0x4)

noinit          0x0000000020003d18     0x16f8
 *(.noinit)
 *(.noinit.*)
 .noinit."../src/main.c".0
                0x0000000020003d18      0x280 libapp.a(main.c.obj)
 .noinit."../src/main.c".1
                0x0000000020003f98       0x30 libapp.a(main.c.obj)
 .noinit."../src/main.c".2
                0x0000000020003fc8       0x98 libapp.a(main.c.obj)
 .noinit."../src/main.c".3
                0x0000000020004060       0xa8 libapp.a(main.c.obj)
 .noinit."../src/main.c".4
                0x0000000020004108       0xd9 libapp.a(main.c.obj)
 *fill*         0x00000000200041e1        0x3 
 .noinit."/home/swap/zephyr/subsys/bluetooth/host/hci_raw.c".0
                0x00000000200041e4       0x48 zephyr/subsys/bluetooth/host/libsubsys__bluetooth__host.a(hci_raw.c.obj)
 .noinit."/home/swap/zephyr/subsys/bluetooth/host/hci_raw.c".1
                0x000000002000422c       0xe4 zephyr/subsys/bluetooth/host/libsubsys__bluetooth__host.a(hci_raw.c.obj)
 .noinit."/home/swap/zephyr/subsys/bluetooth/controller/hci/hci_driver.c".0
                0x0000000020004310      0x1c0 zephyr/subsys/bluetooth/controller/libsubsys__bluetooth__controller.a(hci_driver.c.obj)
 .noinit."/home/swap/zephyr/subsys/bluetooth/controller/hci/hci_driver.c".1
                0x00000000200044d0      0x200 zephyr/subsys/bluetooth/controller/libsubsys__bluetooth__controller.a(hci_driver.c.obj)
 .noinit."/home/swap/zephyr/kernel/init.c".1
                0x00000000200046d0      0x200 zephyr/kernel/libkernel.a(init.c.obj)
                0x00000000200046d0                _main_stack
 .noinit."/home/swap/zephyr/kernel/init.c".2
                0x00000000200048d0      0x140 zephyr/kernel/libkernel.a(init.c.obj)
                0x00000000200048d0                _idle_stack
 .noinit."/home/swap/zephyr/kernel/init.c".3
                0x0000000020004a10      0x800 zephyr/kernel/libkernel.a(init.c.obj)
                0x0000000020004a10                _interrupt_stack
 .noinit."/home/swap/zephyr/kernel/system_work_q.c".0
                0x0000000020005210      0x200 zephyr/kernel/libkernel.a(system_work_q.c.obj)
                0x0000000020005210                sys_work_q_stack
 *(.kernel_noinit.*)

datas           0x0000000020005410      0x218 load address 0x0000000000010d58
                0x0000000020005410                __data_ram_start = .
 *(.data)
 *(.data.*)
 .data.mpu_config
                0x0000000020005410        0x8 zephyr/libzephyr.a(mpu_regions.c.obj)
                0x0000000020005410                mpu_config
 .data.mpu_regions
                0x0000000020005418       0x3c zephyr/libzephyr.a(mpu_regions.c.obj)
 .data.SystemCoreClock
                0x0000000020005454        0x4 zephyr/libzephyr.a(soc.c.obj)
                0x0000000020005454                SystemCoreClock
 .data.uart_nrf5_dev_data_0
                0x0000000020005458        0x8 zephyr/libzephyr.a(uart_nrf5.c.obj)
 .data.events.10570
                0x0000000020005460       0x28 zephyr/subsys/bluetooth/controller/libsubsys__bluetooth__controller.a(hci_driver.c.obj)
 .data.hbuf_signal
                0x0000000020005488       0x10 zephyr/subsys/bluetooth/controller/libsubsys__bluetooth__controller.a(hci_driver.c.obj)
 .data.event_mask
                0x0000000020005498        0x8 zephyr/subsys/bluetooth/controller/libsubsys__bluetooth__controller.a(hci.c.obj)
 .data.le_event_mask
                0x00000000200054a0        0x8 zephyr/subsys/bluetooth/controller/libsubsys__bluetooth__controller.a(hci.c.obj)
 .data.s_mfy_adv_stop.12144
                0x00000000200054a8       0x10 zephyr/subsys/bluetooth/controller/libsubsys__bluetooth__controller.a(ctrl.c.obj)
 .data.s_mfy_radio_active.11701
                0x00000000200054b8       0x10 zephyr/subsys/bluetooth/controller/libsubsys__bluetooth__controller.a(ctrl.c.obj)
 .data.s_mfy_radio_inactive.11713
                0x00000000200054c8       0x10 zephyr/subsys/bluetooth/controller/libsubsys__bluetooth__controller.a(ctrl.c.obj)
 .data.s_mfy_radio_inactive.12124
                0x00000000200054d8       0x10 zephyr/subsys/bluetooth/controller/libsubsys__bluetooth__controller.a(ctrl.c.obj)
 .data.s_mfy_radio_inactive.12638
                0x00000000200054e8       0x10 zephyr/subsys/bluetooth/controller/libsubsys__bluetooth__controller.a(ctrl.c.obj)
 .data.s_mfy_radio_stop.11923
                0x00000000200054f8       0x10 zephyr/subsys/bluetooth/controller/libsubsys__bluetooth__controller.a(ctrl.c.obj)
 .data.s_mfy_radio_stop.12138
                0x0000000020005508       0x10 zephyr/subsys/bluetooth/controller/libsubsys__bluetooth__controller.a(ctrl.c.obj)
 .data.s_mfy_radio_stop.12646
                0x0000000020005518       0x10 zephyr/subsys/bluetooth/controller/libsubsys__bluetooth__controller.a(ctrl.c.obj)
 .data.s_mfy_sched_after_mstr_free_offset_get.12160
                0x0000000020005528       0x10 zephyr/subsys/bluetooth/controller/libsubsys__bluetooth__controller.a(ctrl.c.obj)
 .data.s_mfy_sched_offset.12217
                0x0000000020005538       0x10 zephyr/subsys/bluetooth/controller/libsubsys__bluetooth__controller.a(ctrl.c.obj)
 .data.s_mfy_sched_offset.12278
                0x0000000020005548       0x10 zephyr/subsys/bluetooth/controller/libsubsys__bluetooth__controller.a(ctrl.c.obj)
 .data.s_mfy_xtal_start.11725
                0x0000000020005558       0x10 zephyr/subsys/bluetooth/controller/libsubsys__bluetooth__controller.a(ctrl.c.obj)
 .data.s_mfy_xtal_start.11736
                0x0000000020005568       0x10 zephyr/subsys/bluetooth/controller/libsubsys__bluetooth__controller.a(ctrl.c.obj)
 .data.s_mfy_xtal_stop.11739
                0x0000000020005578       0x20 zephyr/subsys/bluetooth/controller/libsubsys__bluetooth__controller.a(ctrl.c.obj)
 .data.s_mfy_xtal_stop.12131
                0x0000000020005598       0x10 zephyr/subsys/bluetooth/controller/libsubsys__bluetooth__controller.a(ctrl.c.obj)
 .data.s_mfy_xtal_stop.12642
                0x00000000200055a8       0x10 zephyr/subsys/bluetooth/controller/libsubsys__bluetooth__controller.a(ctrl.c.obj)
 .data.s_mfy_xtal_stop_calc.11943
                0x00000000200055b8       0x10 zephyr/subsys/bluetooth/controller/libsubsys__bluetooth__controller.a(ctrl.c.obj)
 .data.m.7410   0x00000000200055c8       0x10 zephyr/subsys/bluetooth/controller/libsubsys__bluetooth__controller.a(ticker.c.obj)
 .data.m.7417   0x00000000200055d8       0x10 zephyr/subsys/bluetooth/controller/libsubsys__bluetooth__controller.a(ticker.c.obj)
 .data.m.7423   0x00000000200055e8       0x10 zephyr/subsys/bluetooth/controller/libsubsys__bluetooth__controller.a(ticker.c.obj)
 .data.m.7427   0x00000000200055f8       0x10 zephyr/subsys/bluetooth/controller/libsubsys__bluetooth__controller.a(ticker.c.obj)
 .data.m.7432   0x0000000020005608       0x10 zephyr/subsys/bluetooth/controller/libsubsys__bluetooth__controller.a(ticker.c.obj)
 .data._sys_idle_threshold_ticks
                0x0000000020005618        0x4 zephyr/kernel/libkernel.a(idle.c.obj)
                0x0000000020005618                _sys_idle_threshold_ticks
 .data._sys_idle_elapsed_ticks
                0x000000002000561c        0x4 zephyr/kernel/libkernel.a(sys_clock.c.obj)
                0x000000002000561c                _sys_idle_elapsed_ticks
 .data.sys_clock_hw_cycles_per_tick
                0x0000000020005620        0x4 zephyr/kernel/libkernel.a(sys_clock.c.obj)
                0x0000000020005620                sys_clock_hw_cycles_per_tick
 .data.sys_clock_us_per_tick
                0x0000000020005624        0x4 zephyr/kernel/libkernel.a(sys_clock.c.obj)
                0x0000000020005624                sys_clock_us_per_tick
 *(.kernel.*)
                0x0000000000010d58                __data_rom_start = LOADADDR (datas)

initlevel       0x0000000020005628       0x90 load address 0x0000000000010f70
                0x0000000020005628                __device_init_start = .
                0x0000000020005628                __device_PRE_KERNEL_1_start = .
 *(SORT(.init_PRE_KERNEL_1[0-9]))
 .init_PRE_KERNEL_10
                0x0000000020005628        0xc zephyr/libzephyr.a(soc.c.obj)
 *(SORT(.init_PRE_KERNEL_1[1-9][0-9]))
 .init_PRE_KERNEL_130
                0x0000000020005634        0xc zephyr/kernel/libkernel.a(mempool.c.obj)
 .init_PRE_KERNEL_140
                0x0000000020005640        0xc zephyr/libzephyr.a(arm_mpu.c.obj)
 .init_PRE_KERNEL_150
                0x000000002000564c       0x18 zephyr/libzephyr.a(nrf5_power_clock.c.obj)
 .init_PRE_KERNEL_150
                0x0000000020005664        0xc zephyr/libzephyr.a(uart_nrf5.c.obj)
 .init_PRE_KERNEL_150
                0x0000000020005670        0xc zephyr/libzephyr.a(entropy_nrf5.c.obj)
                0x000000002000567c                __device_PRE_KERNEL_2_start = .
 *(SORT(.init_PRE_KERNEL_2[0-9]))
 .init_PRE_KERNEL_20
                0x000000002000567c        0xc zephyr/libzephyr.a(sys_clock_init.c.obj)
 *(SORT(.init_PRE_KERNEL_2[1-9][0-9]))
                0x0000000020005688                __device_POST_KERNEL_start = .
 *(SORT(.init_POST_KERNEL[0-9]))
 *(SORT(.init_POST_KERNEL[1-9][0-9]))
 .init_POST_KERNEL40
                0x0000000020005688        0xc zephyr/libzephyr.a(gpio_nrf5.c.obj)
 .init_POST_KERNEL40
                0x0000000020005694        0xc zephyr/kernel/libkernel.a(system_work_q.c.obj)
 .init_POST_KERNEL50
                0x00000000200056a0        0xc zephyr/subsys/bluetooth/controller/libsubsys__bluetooth__controller.a(hci_driver.c.obj)
                0x00000000200056ac                __device_APPLICATION_start = .
 *(SORT(.init_APPLICATION[0-9]))
 *(SORT(.init_APPLICATION[1-9][0-9]))
 .init_APPLICATION50
                0x00000000200056ac        0xc libapp.a(main.c.obj)
                0x00000000200056b8                __device_init_end = .

initlevel_error
                0x0000000020005628        0x0
 *(SORT(.init_[_A-Z0-9]*))
                0x0000000000000001                ASSERT ((SIZEOF (initlevel_error) == 0x0), Undefined initialization levels used.)

initshell       0x00000000200056b8        0x0 load address 0x0000000000011000
                0x00000000200056b8                __shell_module_start = .
 *(.shell_module_*)
                0x00000000200056b8                __shell_module_end = .
                0x00000000200056b8                __shell_cmd_start = .
 *(.shell_cmd_*)
                0x00000000200056b8                __shell_cmd_end = .

_static_thread_area
                0x00000000200056b8        0x0 load address 0x0000000000011000
                0x00000000200056b8                _static_thread_data_list_start = .
 *(SORT(._static_thread_data.static.*))
                0x00000000200056b8                _static_thread_data_list_end = .

_k_timer_area   0x00000000200056b8       0x34 load address 0x0000000000011000
                0x00000000200056b8                _k_timer_list_start = .
 *(SORT(._k_timer.static.*))
 ._k_timer.static.my_status_timer
                0x00000000200056b8       0x34 zephyr/subsys/bluetooth/controller/libsubsys__bluetooth__controller.a(ctrl.c.obj)
                0x00000000200056b8                my_status_timer
                0x00000000200056ec                _k_timer_list_end = .

_k_mem_slab_area
                0x00000000200056ec        0x0 load address 0x0000000000011034
                0x00000000200056ec                _k_mem_slab_list_start = .
 *(SORT(._k_mem_slab.static.*))
                0x00000000200056ec                _k_mem_slab_list_end = .

_k_mem_pool_area
                0x00000000200056ec        0x0 load address 0x0000000000011034
 *(SORT(._k_memory_pool.struct*))
                0x00000000200056ec                _k_mem_pool_list_start = .
 *(SORT(._k_mem_pool.static.*))
                0x00000000200056ec                _k_mem_pool_list_end = .

_k_sem_area     0x00000000200056ec       0x18 load address 0x0000000000011034
                0x00000000200056ec                _k_sem_list_start = .
 *(SORT(._k_sem.static.*))
 ._k_sem.static.sem_prio_recv
                0x00000000200056ec       0x18 zephyr/subsys/bluetooth/controller/libsubsys__bluetooth__controller.a(hci_driver.c.obj)
                0x0000000020005704                _k_sem_list_end = .

_k_mutex_area   0x0000000020005704        0x0 load address 0x000000000001104c
                0x0000000020005704                _k_mutex_list_start = .
 *(SORT(._k_mutex.static.*))
                0x0000000020005704                _k_mutex_list_end = .

_k_alert_area   0x0000000020005704        0x0 load address 0x000000000001104c
                0x0000000020005704                _k_alert_list_start = .
 *(SORT(._k_alert.static.*))
                0x0000000020005704                _k_alert_list_end = .

_k_queue_area   0x0000000020005704       0x30 load address 0x000000000001104c
                0x0000000020005704                _k_queue_list_start = .
 *(SORT(._k_queue.static.*))
 ._k_queue.static.recv_fifo
                0x0000000020005704       0x10 zephyr/subsys/bluetooth/controller/libsubsys__bluetooth__controller.a(hci_driver.c.obj)
 ._k_queue.static.rx_queue
                0x0000000020005714       0x10 libapp.a(main.c.obj)
 ._k_queue.static.tx_queue
                0x0000000020005724       0x10 libapp.a(main.c.obj)
                0x0000000020005734                _k_queue_list_end = .

_k_stack_area   0x0000000020005734        0x0 load address 0x000000000001107c
                0x0000000020005734                _k_stack_list_start = .
 *(SORT(._k_stack.static.*))
                0x0000000020005734                _k_stack_list_end = .

_k_msgq_area    0x0000000020005734        0x0 load address 0x000000000001107c
                0x0000000020005734                _k_msgq_list_start = .
 *(SORT(._k_msgq.static.*))
                0x0000000020005734                _k_msgq_list_end = .

_k_mbox_area    0x0000000020005734        0x0 load address 0x000000000001107c
                0x0000000020005734                _k_mbox_list_start = .
 *(SORT(._k_mbox.static.*))
                0x0000000020005734                _k_mbox_list_end = .

_k_pipe_area    0x0000000020005734        0x0 load address 0x000000000001107c
                0x0000000020005734                _k_pipe_list_start = .
 *(SORT(._k_pipe.static.*))
                0x0000000020005734                _k_pipe_list_end = .

_k_work_area    0x0000000020005734        0x0 load address 0x000000000001107c
                0x0000000020005734                _k_work_list_start = .
 *(SORT(._k_work.static.*))
                0x0000000020005734                _k_work_list_end = .

_k_task_list    0x0000000020005734        0x0 load address 0x000000000001107c
                0x0000000020005734                _k_task_list_start = .
 *(._k_task_list.public.*)
 *(._k_task_list.private.*)
                0x0000000020005734                _k_task_list_idle_start = .
 *(._k_task_list.idle.*)
 *(SORT(._k_task_list*))
                0x0000000020005734                _k_task_list_end = .

_k_event_list   0x0000000020005734        0x0 load address 0x000000000001107c
                0x0000000020005734                _k_event_list_start = .
 *(._k_event_list.event.*)
 *(SORT(._k_event_list*))
                0x0000000020005734                _k_event_list_end = .

_k_memory_pool  0x0000000020005734        0x0 load address 0x000000000001107c
 *(._k_memory_pool.struct*)
 *(SORT(._k_memory_pool.struct*))
                0x0000000020005734                _k_mem_pool_start = .
 *(._k_memory_pool.*)
 *(SORT(._k_memory_pool*))
                0x0000000020005734                _k_mem_pool_end = .

_net_buf_pool_area
                0x0000000020005734       0x60 load address 0x000000000001107c
                0x0000000020005734                _net_buf_pool_list = .
 *(SORT(._net_buf_pool.static.*))
 ._net_buf_pool.static.acl_tx_pool
                0x0000000020005734       0x20 libapp.a(main.c.obj)
                0x0000000020005734                acl_tx_pool
 ._net_buf_pool.static.cmd_tx_pool
                0x0000000020005754       0x20 libapp.a(main.c.obj)
                0x0000000020005754                cmd_tx_pool
 ._net_buf_pool.static.hci_rx_pool
                0x0000000020005774       0x20 zephyr/subsys/bluetooth/host/libsubsys__bluetooth__host.a(hci_raw.c.obj)
                0x0000000020005774                hci_rx_pool

net_if          0x0000000020005794        0x0 load address 0x00000000000110dc
                0x0000000020005794                __net_if_start = .
 *(.net_if.*)
 *(SORT(.net_if.*))
                0x0000000020005794                __net_if_end = .

net_if_event    0x0000000020005794        0x0 load address 0x00000000000110dc
                0x0000000020005794                __net_if_event_start = .
 *(.net_if_event.*)
 *(SORT(.net_if_event.*))
                0x0000000020005794                __net_if_event_end = .

net_l2_data     0x0000000020005794        0x0 load address 0x00000000000110dc
                0x0000000020005794                __net_l2_data_start = .
 *(.net_l2.data)
 *(SORT(.net_l2.data*))
                0x0000000020005794                __net_l2_data_end = .
                0x0000000020005794                __data_ram_end = .
                0x0000000020005794                _image_ram_end = .
                0x0000000020005794                _end = .
                0x0000000020040000                __kernel_ram_end = 0x20040000
                0x0000000000040000                __kernel_ram_size = (__kernel_ram_end - __kernel_ram_start)

/DISCARD/
 *(.irq_info)
 *(.intList)
OUTPUT(zephyr/zephyr.elf elf32-littlearm)

.debug_info     0x0000000000000000    0x5082d
 .debug_info    0x0000000000000000       0xe4 zephyr/CMakeFiles/kernel_elf.dir/isr_tables.c.obj
 .debug_info    0x00000000000000e4      0x543 libapp.a(string.c.obj)
 .debug_info    0x0000000000000627     0x1b3b libapp.a(main.c.obj)
 .debug_info    0x0000000000002162      0x14b zephyr/libzephyr.a(isr_tables.c.obj)
 .debug_info    0x00000000000022ad      0x5cb zephyr/libzephyr.a(mpu_regions.c.obj)
 .debug_info    0x0000000000002878     0x13bc zephyr/libzephyr.a(soc.c.obj)
 .debug_info    0x0000000000003c34       0x86 zephyr/libzephyr.a(exc_exit.S.obj)
 .debug_info    0x0000000000003cba      0x9c9 zephyr/libzephyr.a(irq_init.c.obj)
 .debug_info    0x0000000000004683      0x8bf zephyr/libzephyr.a(swap.c.obj)
 .debug_info    0x0000000000004f42       0x85 zephyr/libzephyr.a(swap_helper.S.obj)
 .debug_info    0x0000000000004fc7      0xbe6 zephyr/libzephyr.a(fault.c.obj)
 .debug_info    0x0000000000005bad      0xdbc zephyr/libzephyr.a(irq_manage.c.obj)
 .debug_info    0x0000000000006969      0x9c4 zephyr/libzephyr.a(thread.c.obj)
 .debug_info    0x000000000000732d       0x82 zephyr/libzephyr.a(cpu_idle.S.obj)
 .debug_info    0x00000000000073af       0x85 zephyr/libzephyr.a(fault_s.S.obj)
 .debug_info    0x0000000000007434      0x946 zephyr/libzephyr.a(fatal.c.obj)
 .debug_info    0x0000000000007d7a      0x8cd zephyr/libzephyr.a(sys_fatal_error_handler.c.obj)
 .debug_info    0x0000000000008647      0x9aa zephyr/libzephyr.a(thread_abort.c.obj)
 .debug_info    0x0000000000008ff1       0x89 zephyr/libzephyr.a(isr_wrapper.S.obj)
 .debug_info    0x000000000000907a       0x8c zephyr/libzephyr.a(reset.S.obj)
 .debug_info    0x0000000000009106       0x93 zephyr/libzephyr.a(nmi_on_reset.S.obj)
 .debug_info    0x0000000000009199      0x87f zephyr/libzephyr.a(prep_c.c.obj)
 .debug_info    0x0000000000009a18      0x50a zephyr/libzephyr.a(nmi.c.obj)
 .debug_info    0x0000000000009f22      0xd34 zephyr/libzephyr.a(arm_mpu.c.obj)
 .debug_info    0x000000000000ac56       0x37 zephyr/libzephyr.a(configs.c.obj)
 .debug_info    0x000000000000ac8d      0x814 zephyr/libzephyr.a(rand32_entropy_device.c.obj)
 .debug_info    0x000000000000b4a1     0x15ec zephyr/libzephyr.a(nrf5_power_clock.c.obj)
 .debug_info    0x000000000000ca8d     0x14cc zephyr/libzephyr.a(gpio_nrf5.c.obj)
 .debug_info    0x000000000000df59     0x1575 zephyr/libzephyr.a(uart_nrf5.c.obj)
 .debug_info    0x000000000000f4ce      0xe70 zephyr/libzephyr.a(entropy_nrf5.c.obj)
 .debug_info    0x000000000001033e      0x5b6 zephyr/libzephyr.a(sys_clock_init.c.obj)
 .debug_info    0x00000000000108f4      0xe4a zephyr/libzephyr.a(nrf_rtc_timer.c.obj)
 .debug_info    0x000000000001173e      0x972 zephyr/subsys/bluetooth/common/libsubsys__bluetooth__common.a(rpa.c.obj)
 .debug_info    0x00000000000120b0      0xc38 zephyr/subsys/bluetooth/host/libsubsys__bluetooth__host.a(hci_raw.c.obj)
 .debug_info    0x0000000000012ce8      0x4dc zephyr/subsys/bluetooth/controller/libsubsys__bluetooth__controller.a(mem.c.obj)
 .debug_info    0x00000000000131c4      0x1fe zephyr/subsys/bluetooth/controller/libsubsys__bluetooth__controller.a(memq.c.obj)
 .debug_info    0x00000000000133c2      0x4d5 zephyr/subsys/bluetooth/controller/libsubsys__bluetooth__controller.a(mayfly.c.obj)
 .debug_info    0x0000000000013897       0xcd zephyr/subsys/bluetooth/controller/libsubsys__bluetooth__controller.a(util.c.obj)
 .debug_info    0x0000000000013964     0x2413 zephyr/subsys/bluetooth/controller/libsubsys__bluetooth__controller.a(ticker.c.obj)
 .debug_info    0x0000000000015d77      0x1ac zephyr/subsys/bluetooth/controller/libsubsys__bluetooth__controller.a(ll_addr.c.obj)
 .debug_info    0x0000000000015f23       0xff zephyr/subsys/bluetooth/controller/libsubsys__bluetooth__controller.a(ll_tx_pwr.c.obj)
 .debug_info    0x0000000000016022      0x8e4 zephyr/subsys/bluetooth/controller/libsubsys__bluetooth__controller.a(crypto.c.obj)
 .debug_info    0x0000000000016906     0x1a7a zephyr/subsys/bluetooth/controller/libsubsys__bluetooth__controller.a(hci_driver.c.obj)
 .debug_info    0x0000000000018380     0x8bed zephyr/subsys/bluetooth/controller/libsubsys__bluetooth__controller.a(hci.c.obj)
 .debug_info    0x0000000000020f6d     0xebd4 zephyr/subsys/bluetooth/controller/libsubsys__bluetooth__controller.a(ctrl.c.obj)
 .debug_info    0x000000000002fb41     0x10d4 zephyr/subsys/bluetooth/controller/libsubsys__bluetooth__controller.a(ll.c.obj)
 .debug_info    0x0000000000030c15     0x11a2 zephyr/subsys/bluetooth/controller/libsubsys__bluetooth__controller.a(ll_adv.c.obj)
 .debug_info    0x0000000000031db7      0x6ed zephyr/subsys/bluetooth/controller/libsubsys__bluetooth__controller.a(ll_scan.c.obj)
 .debug_info    0x00000000000324a4      0x6ab zephyr/subsys/bluetooth/controller/libsubsys__bluetooth__controller.a(ll_master.c.obj)
 .debug_info    0x0000000000032b4f      0xf06 zephyr/subsys/bluetooth/controller/libsubsys__bluetooth__controller.a(ll_test.c.obj)
 .debug_info    0x0000000000033a55     0x24c9 zephyr/subsys/bluetooth/controller/libsubsys__bluetooth__controller.a(ll_filter.c.obj)
 .debug_info    0x0000000000035f1e      0x9e3 zephyr/subsys/bluetooth/controller/libsubsys__bluetooth__controller.a(cntr.c.obj)
 .debug_info    0x0000000000036901     0x1099 zephyr/subsys/bluetooth/controller/libsubsys__bluetooth__controller.a(ecb.c.obj)
 .debug_info    0x000000000003799a     0x2733 zephyr/subsys/bluetooth/controller/libsubsys__bluetooth__controller.a(radio.c.obj)
 .debug_info    0x000000000003a0cd      0xbb1 zephyr/subsys/bluetooth/controller/libsubsys__bluetooth__controller.a(mayfly.c.obj)
 .debug_info    0x000000000003ac7e      0xa11 zephyr/subsys/bluetooth/controller/libsubsys__bluetooth__controller.a(ticker.c.obj)
 .debug_info    0x000000000003b68f     0x233d zephyr/subsys/net/libsubsys__net.a(buf.c.obj)
 .debug_info    0x000000000003d9cc      0x70c zephyr/kernel/libkernel.a(device.c.obj)
 .debug_info    0x000000000003e0d8      0x6d6 zephyr/kernel/libkernel.a(errno.c.obj)
 .debug_info    0x000000000003e7ae      0x923 zephyr/kernel/libkernel.a(idle.c.obj)
 .debug_info    0x000000000003f0d1     0x131c zephyr/kernel/libkernel.a(init.c.obj)
 .debug_info    0x00000000000403ed     0x1dfb zephyr/kernel/libkernel.a(mempool.c.obj)
 .debug_info    0x00000000000421e8     0x1235 zephyr/kernel/libkernel.a(queue.c.obj)
 .debug_info    0x000000000004341d     0x1f31 zephyr/kernel/libkernel.a(sched.c.obj)
 .debug_info    0x000000000004534e     0x1360 zephyr/kernel/libkernel.a(sem.c.obj)
 .debug_info    0x00000000000466ae     0x11a1 zephyr/kernel/libkernel.a(sys_clock.c.obj)
 .debug_info    0x000000000004784f      0x65b zephyr/kernel/libkernel.a(system_work_q.c.obj)
 .debug_info    0x0000000000047eaa     0x1d88 zephyr/kernel/libkernel.a(thread.c.obj)
 .debug_info    0x0000000000049c32     0x1739 zephyr/kernel/libkernel.a(work_q.c.obj)
 .debug_info    0x000000000004b36b     0x1908 zephyr/kernel/libkernel.a(timer.c.obj)
 .debug_info    0x000000000004cc73     0x1bfe zephyr/kernel/libkernel.a(poll.c.obj)
 .debug_info    0x000000000004e871      0x974 zephyr/CMakeFiles/offsets.dir/arch/arm/core/offsets/offsets.c.obj
 .debug_info    0x000000000004f1e5       0xdc /home/swap/directory/sysroots/armv5-zephyr-eabi/usr/lib/arm-zephyr-eabi/6.2.0/armv7e-m/libgcc.a(_aeabi_uldivmod.o)
 .debug_info    0x000000000004f2c1      0x88c /home/swap/directory/sysroots/armv5-zephyr-eabi/usr/lib/arm-zephyr-eabi/6.2.0/armv7e-m/libgcc.a(_popcountsi2.o)
 .debug_info    0x000000000004fb4d      0xc00 /home/swap/directory/sysroots/armv5-zephyr-eabi/usr/lib/arm-zephyr-eabi/6.2.0/armv7e-m/libgcc.a(_udivmoddi4.o)
 .debug_info    0x000000000005074d       0xe0 /home/swap/directory/sysroots/armv5-zephyr-eabi/usr/lib/arm-zephyr-eabi/6.2.0/armv7e-m/libgcc.a(_dvmd_tls.o)

.debug_abbrev   0x0000000000000000     0xce3b
 .debug_abbrev  0x0000000000000000       0xb7 zephyr/CMakeFiles/kernel_elf.dir/isr_tables.c.obj
 .debug_abbrev  0x00000000000000b7      0x19f libapp.a(string.c.obj)
 .debug_abbrev  0x0000000000000256      0x4c9 libapp.a(main.c.obj)
 .debug_abbrev  0x000000000000071f       0xe2 zephyr/libzephyr.a(isr_tables.c.obj)
 .debug_abbrev  0x0000000000000801      0x182 zephyr/libzephyr.a(mpu_regions.c.obj)
 .debug_abbrev  0x0000000000000983      0x2ee zephyr/libzephyr.a(soc.c.obj)
 .debug_abbrev  0x0000000000000c71       0x14 zephyr/libzephyr.a(exc_exit.S.obj)
 .debug_abbrev  0x0000000000000c85      0x22b zephyr/libzephyr.a(irq_init.c.obj)
 .debug_abbrev  0x0000000000000eb0      0x20c zephyr/libzephyr.a(swap.c.obj)
 .debug_abbrev  0x00000000000010bc       0x12 zephyr/libzephyr.a(swap_helper.S.obj)
 .debug_abbrev  0x00000000000010ce      0x2f9 zephyr/libzephyr.a(fault.c.obj)
 .debug_abbrev  0x00000000000013c7      0x319 zephyr/libzephyr.a(irq_manage.c.obj)
 .debug_abbrev  0x00000000000016e0      0x284 zephyr/libzephyr.a(thread.c.obj)
 .debug_abbrev  0x0000000000001964       0x12 zephyr/libzephyr.a(cpu_idle.S.obj)
 .debug_abbrev  0x0000000000001976       0x14 zephyr/libzephyr.a(fault_s.S.obj)
 .debug_abbrev  0x000000000000198a      0x2c0 zephyr/libzephyr.a(fatal.c.obj)
 .debug_abbrev  0x0000000000001c4a      0x275 zephyr/libzephyr.a(sys_fatal_error_handler.c.obj)
 .debug_abbrev  0x0000000000001ebf      0x27b zephyr/libzephyr.a(thread_abort.c.obj)
 .debug_abbrev  0x000000000000213a       0x14 zephyr/libzephyr.a(isr_wrapper.S.obj)
 .debug_abbrev  0x000000000000214e       0x14 zephyr/libzephyr.a(reset.S.obj)
 .debug_abbrev  0x0000000000002162       0x14 zephyr/libzephyr.a(nmi_on_reset.S.obj)
 .debug_abbrev  0x0000000000002176      0x1ed zephyr/libzephyr.a(prep_c.c.obj)
 .debug_abbrev  0x0000000000002363      0x18f zephyr/libzephyr.a(nmi.c.obj)
 .debug_abbrev  0x00000000000024f2      0x347 zephyr/libzephyr.a(arm_mpu.c.obj)
 .debug_abbrev  0x0000000000002839       0x2c zephyr/libzephyr.a(configs.c.obj)
 .debug_abbrev  0x0000000000002865      0x26f zephyr/libzephyr.a(rand32_entropy_device.c.obj)
 .debug_abbrev  0x0000000000002ad4      0x3ce zephyr/libzephyr.a(nrf5_power_clock.c.obj)
 .debug_abbrev  0x0000000000002ea2      0x493 zephyr/libzephyr.a(gpio_nrf5.c.obj)
 .debug_abbrev  0x0000000000003335      0x404 zephyr/libzephyr.a(uart_nrf5.c.obj)
 .debug_abbrev  0x0000000000003739      0x36c zephyr/libzephyr.a(entropy_nrf5.c.obj)
 .debug_abbrev  0x0000000000003aa5      0x17c zephyr/libzephyr.a(sys_clock_init.c.obj)
 .debug_abbrev  0x0000000000003c21      0x3d6 zephyr/libzephyr.a(nrf_rtc_timer.c.obj)
 .debug_abbrev  0x0000000000003ff7      0x253 zephyr/subsys/bluetooth/common/libsubsys__bluetooth__common.a(rpa.c.obj)
 .debug_abbrev  0x000000000000424a      0x308 zephyr/subsys/bluetooth/host/libsubsys__bluetooth__host.a(hci_raw.c.obj)
 .debug_abbrev  0x0000000000004552      0x14d zephyr/subsys/bluetooth/controller/libsubsys__bluetooth__controller.a(mem.c.obj)
 .debug_abbrev  0x000000000000469f      0x139 zephyr/subsys/bluetooth/controller/libsubsys__bluetooth__controller.a(memq.c.obj)
 .debug_abbrev  0x00000000000047d8      0x1a3 zephyr/subsys/bluetooth/controller/libsubsys__bluetooth__controller.a(mayfly.c.obj)
 .debug_abbrev  0x000000000000497b       0x92 zephyr/subsys/bluetooth/controller/libsubsys__bluetooth__controller.a(util.c.obj)
 .debug_abbrev  0x0000000000004a0d      0x4a4 zephyr/subsys/bluetooth/controller/libsubsys__bluetooth__controller.a(ticker.c.obj)
 .debug_abbrev  0x0000000000004eb1       0xe4 zephyr/subsys/bluetooth/controller/libsubsys__bluetooth__controller.a(ll_addr.c.obj)
 .debug_abbrev  0x0000000000004f95       0xa1 zephyr/subsys/bluetooth/controller/libsubsys__bluetooth__controller.a(ll_tx_pwr.c.obj)
 .debug_abbrev  0x0000000000005036      0x223 zephyr/subsys/bluetooth/controller/libsubsys__bluetooth__controller.a(crypto.c.obj)
 .debug_abbrev  0x0000000000005259      0x4e7 zephyr/subsys/bluetooth/controller/libsubsys__bluetooth__controller.a(hci_driver.c.obj)
 .debug_abbrev  0x0000000000005740      0x648 zephyr/subsys/bluetooth/controller/libsubsys__bluetooth__controller.a(hci.c.obj)
 .debug_abbrev  0x0000000000005d88      0x6f8 zephyr/subsys/bluetooth/controller/libsubsys__bluetooth__controller.a(ctrl.c.obj)
 .debug_abbrev  0x0000000000006480      0x397 zephyr/subsys/bluetooth/controller/libsubsys__bluetooth__controller.a(ll.c.obj)
 .debug_abbrev  0x0000000000006817      0x36d zephyr/subsys/bluetooth/controller/libsubsys__bluetooth__controller.a(ll_adv.c.obj)
 .debug_abbrev  0x0000000000006b84      0x23c zephyr/subsys/bluetooth/controller/libsubsys__bluetooth__controller.a(ll_scan.c.obj)
 .debug_abbrev  0x0000000000006dc0      0x1e6 zephyr/subsys/bluetooth/controller/libsubsys__bluetooth__controller.a(ll_master.c.obj)
 .debug_abbrev  0x0000000000006fa6      0x39e zephyr/subsys/bluetooth/controller/libsubsys__bluetooth__controller.a(ll_test.c.obj)
 .debug_abbrev  0x0000000000007344      0x590 zephyr/subsys/bluetooth/controller/libsubsys__bluetooth__controller.a(ll_filter.c.obj)
 .debug_abbrev  0x00000000000078d4      0x279 zephyr/subsys/bluetooth/controller/libsubsys__bluetooth__controller.a(cntr.c.obj)
 .debug_abbrev  0x0000000000007b4d      0x370 zephyr/subsys/bluetooth/controller/libsubsys__bluetooth__controller.a(ecb.c.obj)
 .debug_abbrev  0x0000000000007ebd      0x5d5 zephyr/subsys/bluetooth/controller/libsubsys__bluetooth__controller.a(radio.c.obj)
 .debug_abbrev  0x0000000000008492      0x2d1 zephyr/subsys/bluetooth/controller/libsubsys__bluetooth__controller.a(mayfly.c.obj)
 .debug_abbrev  0x0000000000008763      0x273 zephyr/subsys/bluetooth/controller/libsubsys__bluetooth__controller.a(ticker.c.obj)
 .debug_abbrev  0x00000000000089d6      0x580 zephyr/subsys/net/libsubsys__net.a(buf.c.obj)
 .debug_abbrev  0x0000000000008f56      0x278 zephyr/kernel/libkernel.a(device.c.obj)
 .debug_abbrev  0x00000000000091ce      0x1c9 zephyr/kernel/libkernel.a(errno.c.obj)
 .debug_abbrev  0x0000000000009397      0x330 zephyr/kernel/libkernel.a(idle.c.obj)
 .debug_abbrev  0x00000000000096c7      0x4b6 zephyr/kernel/libkernel.a(init.c.obj)
 .debug_abbrev  0x0000000000009b7d      0x510 zephyr/kernel/libkernel.a(mempool.c.obj)
 .debug_abbrev  0x000000000000a08d      0x3e8 zephyr/kernel/libkernel.a(queue.c.obj)
 .debug_abbrev  0x000000000000a475      0x5c9 zephyr/kernel/libkernel.a(sched.c.obj)
 .debug_abbrev  0x000000000000aa3e      0x452 zephyr/kernel/libkernel.a(sem.c.obj)
 .debug_abbrev  0x000000000000ae90      0x42a zephyr/kernel/libkernel.a(sys_clock.c.obj)
 .debug_abbrev  0x000000000000b2ba      0x1f8 zephyr/kernel/libkernel.a(system_work_q.c.obj)
 .debug_abbrev  0x000000000000b4b2      0x5e1 zephyr/kernel/libkernel.a(thread.c.obj)
 .debug_abbrev  0x000000000000ba93      0x4c1 zephyr/kernel/libkernel.a(work_q.c.obj)
 .debug_abbrev  0x000000000000bf54      0x4d0 zephyr/kernel/libkernel.a(timer.c.obj)
 .debug_abbrev  0x000000000000c424      0x560 zephyr/kernel/libkernel.a(poll.c.obj)
 .debug_abbrev  0x000000000000c984      0x1ce zephyr/CMakeFiles/offsets.dir/arch/arm/core/offsets/offsets.c.obj
 .debug_abbrev  0x000000000000cb52       0x14 /home/swap/directory/sysroots/armv5-zephyr-eabi/usr/lib/arm-zephyr-eabi/6.2.0/armv7e-m/libgcc.a(_aeabi_uldivmod.o)
 .debug_abbrev  0x000000000000cb66      0x135 /home/swap/directory/sysroots/armv5-zephyr-eabi/usr/lib/arm-zephyr-eabi/6.2.0/armv7e-m/libgcc.a(_popcountsi2.o)
 .debug_abbrev  0x000000000000cc9b      0x18c /home/swap/directory/sysroots/armv5-zephyr-eabi/usr/lib/arm-zephyr-eabi/6.2.0/armv7e-m/libgcc.a(_udivmoddi4.o)
 .debug_abbrev  0x000000000000ce27       0x14 /home/swap/directory/sysroots/armv5-zephyr-eabi/usr/lib/arm-zephyr-eabi/6.2.0/armv7e-m/libgcc.a(_dvmd_tls.o)

.debug_aranges  0x0000000000000000     0x1ac0
 .debug_aranges
                0x0000000000000000       0x18 zephyr/CMakeFiles/kernel_elf.dir/isr_tables.c.obj
 .debug_aranges
                0x0000000000000018       0x88 libapp.a(string.c.obj)
 .debug_aranges
                0x00000000000000a0       0x60 libapp.a(main.c.obj)
 .debug_aranges
                0x0000000000000100       0x20 zephyr/libzephyr.a(isr_tables.c.obj)
 .debug_aranges
                0x0000000000000120       0x18 zephyr/libzephyr.a(mpu_regions.c.obj)
 .debug_aranges
                0x0000000000000138       0x28 zephyr/libzephyr.a(soc.c.obj)
 .debug_aranges
                0x0000000000000160       0x20 zephyr/libzephyr.a(exc_exit.S.obj)
 .debug_aranges
                0x0000000000000180       0x20 zephyr/libzephyr.a(irq_init.c.obj)
 .debug_aranges
                0x00000000000001a0       0x20 zephyr/libzephyr.a(swap.c.obj)
 .debug_aranges
                0x00000000000001c0       0x28 zephyr/libzephyr.a(swap_helper.S.obj)
 .debug_aranges
                0x00000000000001e8       0x40 zephyr/libzephyr.a(fault.c.obj)
 .debug_aranges
                0x0000000000000228       0x48 zephyr/libzephyr.a(irq_manage.c.obj)
 .debug_aranges
                0x0000000000000270       0x20 zephyr/libzephyr.a(thread.c.obj)
 .debug_aranges
                0x0000000000000290       0x40 zephyr/libzephyr.a(cpu_idle.S.obj)
 .debug_aranges
                0x00000000000002d0       0x20 zephyr/libzephyr.a(fault_s.S.obj)
 .debug_aranges
                0x00000000000002f0       0x30 zephyr/libzephyr.a(fatal.c.obj)
 .debug_aranges
                0x0000000000000320       0x20 zephyr/libzephyr.a(sys_fatal_error_handler.c.obj)
 .debug_aranges
                0x0000000000000340       0x20 zephyr/libzephyr.a(thread_abort.c.obj)
 .debug_aranges
                0x0000000000000360       0x20 zephyr/libzephyr.a(isr_wrapper.S.obj)
 .debug_aranges
                0x0000000000000380       0x20 zephyr/libzephyr.a(reset.S.obj)
 .debug_aranges
                0x00000000000003a0       0x20 zephyr/libzephyr.a(nmi_on_reset.S.obj)
 .debug_aranges
                0x00000000000003c0       0x20 zephyr/libzephyr.a(prep_c.c.obj)
 .debug_aranges
                0x00000000000003e0       0x20 zephyr/libzephyr.a(nmi.c.obj)
 .debug_aranges
                0x0000000000000400       0x38 zephyr/libzephyr.a(arm_mpu.c.obj)
 .debug_aranges
                0x0000000000000438       0x20 zephyr/libzephyr.a(configs.c.obj)
 .debug_aranges
                0x0000000000000458       0x20 zephyr/libzephyr.a(rand32_entropy_device.c.obj)
 .debug_aranges
                0x0000000000000478       0x40 zephyr/libzephyr.a(nrf5_power_clock.c.obj)
 .debug_aranges
                0x00000000000004b8       0x78 zephyr/libzephyr.a(gpio_nrf5.c.obj)
 .debug_aranges
                0x0000000000000530       0xc0 zephyr/libzephyr.a(uart_nrf5.c.obj)
 .debug_aranges
                0x00000000000005f0       0x48 zephyr/libzephyr.a(entropy_nrf5.c.obj)
 .debug_aranges
                0x0000000000000638       0x18 zephyr/libzephyr.a(sys_clock_init.c.obj)
 .debug_aranges
                0x0000000000000650       0x50 zephyr/libzephyr.a(nrf_rtc_timer.c.obj)
 .debug_aranges
                0x00000000000006a0       0x30 zephyr/subsys/bluetooth/common/libsubsys__bluetooth__common.a(rpa.c.obj)
 .debug_aranges
                0x00000000000006d0       0x50 zephyr/subsys/bluetooth/host/libsubsys__bluetooth__host.a(hci_raw.c.obj)
 .debug_aranges
                0x0000000000000720       0x60 zephyr/subsys/bluetooth/controller/libsubsys__bluetooth__controller.a(mem.c.obj)
 .debug_aranges
                0x0000000000000780       0x38 zephyr/subsys/bluetooth/controller/libsubsys__bluetooth__controller.a(memq.c.obj)
 .debug_aranges
                0x00000000000007b8       0x38 zephyr/subsys/bluetooth/controller/libsubsys__bluetooth__controller.a(mayfly.c.obj)
 .debug_aranges
                0x00000000000007f0       0x20 zephyr/subsys/bluetooth/controller/libsubsys__bluetooth__controller.a(util.c.obj)
 .debug_aranges
                0x0000000000000810       0x98 zephyr/subsys/bluetooth/controller/libsubsys__bluetooth__controller.a(ticker.c.obj)
 .debug_aranges
                0x00000000000008a8       0x28 zephyr/subsys/bluetooth/controller/libsubsys__bluetooth__controller.a(ll_addr.c.obj)
 .debug_aranges
                0x00000000000008d0       0x28 zephyr/subsys/bluetooth/controller/libsubsys__bluetooth__controller.a(ll_tx_pwr.c.obj)
 .debug_aranges
                0x00000000000008f8       0x30 zephyr/subsys/bluetooth/controller/libsubsys__bluetooth__controller.a(crypto.c.obj)
 .debug_aranges
                0x0000000000000928       0x50 zephyr/subsys/bluetooth/controller/libsubsys__bluetooth__controller.a(hci_driver.c.obj)
 .debug_aranges
                0x0000000000000978       0xc8 zephyr/subsys/bluetooth/controller/libsubsys__bluetooth__controller.a(hci.c.obj)
 .debug_aranges
                0x0000000000000a40      0x428 zephyr/subsys/bluetooth/controller/libsubsys__bluetooth__controller.a(ctrl.c.obj)
 .debug_aranges
                0x0000000000000e68       0x50 zephyr/subsys/bluetooth/controller/libsubsys__bluetooth__controller.a(ll.c.obj)
 .debug_aranges
                0x0000000000000eb8       0x40 zephyr/subsys/bluetooth/controller/libsubsys__bluetooth__controller.a(ll_adv.c.obj)
 .debug_aranges
                0x0000000000000ef8       0x28 zephyr/subsys/bluetooth/controller/libsubsys__bluetooth__controller.a(ll_scan.c.obj)
 .debug_aranges
                0x0000000000000f20       0x20 zephyr/subsys/bluetooth/controller/libsubsys__bluetooth__controller.a(ll_master.c.obj)
 .debug_aranges
                0x0000000000000f40       0x48 zephyr/subsys/bluetooth/controller/libsubsys__bluetooth__controller.a(ll_test.c.obj)
 .debug_aranges
                0x0000000000000f88      0x138 zephyr/subsys/bluetooth/controller/libsubsys__bluetooth__controller.a(ll_filter.c.obj)
 .debug_aranges
                0x00000000000010c0       0x40 zephyr/subsys/bluetooth/controller/libsubsys__bluetooth__controller.a(cntr.c.obj)
 .debug_aranges
                0x0000000000001100       0x50 zephyr/subsys/bluetooth/controller/libsubsys__bluetooth__controller.a(ecb.c.obj)
 .debug_aranges
                0x0000000000001150      0x238 zephyr/subsys/bluetooth/controller/libsubsys__bluetooth__controller.a(radio.c.obj)
 .debug_aranges
                0x0000000000001388       0x38 zephyr/subsys/bluetooth/controller/libsubsys__bluetooth__controller.a(mayfly.c.obj)
 .debug_aranges
                0x00000000000013c0       0x30 zephyr/subsys/bluetooth/controller/libsubsys__bluetooth__controller.a(ticker.c.obj)
 .debug_aranges
                0x00000000000013f0      0x168 zephyr/subsys/net/libsubsys__net.a(buf.c.obj)
 .debug_aranges
                0x0000000000001558       0x30 zephyr/kernel/libkernel.a(device.c.obj)
 .debug_aranges
                0x0000000000001588       0x20 zephyr/kernel/libkernel.a(errno.c.obj)
 .debug_aranges
                0x00000000000015a8       0x30 zephyr/kernel/libkernel.a(idle.c.obj)
 .debug_aranges
                0x00000000000015d8       0x48 zephyr/kernel/libkernel.a(init.c.obj)
 .debug_aranges
                0x0000000000001620       0x50 zephyr/kernel/libkernel.a(mempool.c.obj)
 .debug_aranges
                0x0000000000001670       0x58 zephyr/kernel/libkernel.a(queue.c.obj)
 .debug_aranges
                0x00000000000016c8       0xc0 zephyr/kernel/libkernel.a(sched.c.obj)
 .debug_aranges
                0x0000000000001788       0x40 zephyr/kernel/libkernel.a(sem.c.obj)
 .debug_aranges
                0x00000000000017c8       0x50 zephyr/kernel/libkernel.a(sys_clock.c.obj)
 .debug_aranges
                0x0000000000001818       0x20 zephyr/kernel/libkernel.a(system_work_q.c.obj)
 .debug_aranges
                0x0000000000001838       0xc8 zephyr/kernel/libkernel.a(thread.c.obj)
 .debug_aranges
                0x0000000000001900       0x50 zephyr/kernel/libkernel.a(work_q.c.obj)
 .debug_aranges
                0x0000000000001950       0x70 zephyr/kernel/libkernel.a(timer.c.obj)
 .debug_aranges
                0x00000000000019c0       0x60 zephyr/kernel/libkernel.a(poll.c.obj)
 .debug_aranges
                0x0000000000001a20       0x20 zephyr/CMakeFiles/offsets.dir/arch/arm/core/offsets/offsets.c.obj
 .debug_aranges
                0x0000000000001a40       0x20 /home/swap/directory/sysroots/armv5-zephyr-eabi/usr/lib/arm-zephyr-eabi/6.2.0/armv7e-m/libgcc.a(_aeabi_uldivmod.o)
 .debug_aranges
                0x0000000000001a60       0x20 /home/swap/directory/sysroots/armv5-zephyr-eabi/usr/lib/arm-zephyr-eabi/6.2.0/armv7e-m/libgcc.a(_popcountsi2.o)
 .debug_aranges
                0x0000000000001a80       0x20 /home/swap/directory/sysroots/armv5-zephyr-eabi/usr/lib/arm-zephyr-eabi/6.2.0/armv7e-m/libgcc.a(_udivmoddi4.o)
 .debug_aranges
                0x0000000000001aa0       0x20 /home/swap/directory/sysroots/armv5-zephyr-eabi/usr/lib/arm-zephyr-eabi/6.2.0/armv7e-m/libgcc.a(_dvmd_tls.o)

.debug_line     0x0000000000000000    0x11fe7
 .debug_line    0x0000000000000000       0x80 zephyr/CMakeFiles/kernel_elf.dir/isr_tables.c.obj
 .debug_line    0x0000000000000080      0x250 libapp.a(string.c.obj)
 .debug_line    0x00000000000002d0      0x4c0 libapp.a(main.c.obj)
 .debug_line    0x0000000000000790       0xa7 zephyr/libzephyr.a(isr_tables.c.obj)
 .debug_line    0x0000000000000837      0x207 zephyr/libzephyr.a(mpu_regions.c.obj)
 .debug_line    0x0000000000000a3e      0x2d5 zephyr/libzephyr.a(soc.c.obj)
 .debug_line    0x0000000000000d13       0x71 zephyr/libzephyr.a(exc_exit.S.obj)
 .debug_line    0x0000000000000d84      0x211 zephyr/libzephyr.a(irq_init.c.obj)
 .debug_line    0x0000000000000f95      0x28d zephyr/libzephyr.a(swap.c.obj)
 .debug_line    0x0000000000001222       0xaf zephyr/libzephyr.a(swap_helper.S.obj)
 .debug_line    0x00000000000012d1      0x313 zephyr/libzephyr.a(fault.c.obj)
 .debug_line    0x00000000000015e4      0x345 zephyr/libzephyr.a(irq_manage.c.obj)
 .debug_line    0x0000000000001929      0x36c zephyr/libzephyr.a(thread.c.obj)
 .debug_line    0x0000000000001c95       0xb0 zephyr/libzephyr.a(cpu_idle.S.obj)
 .debug_line    0x0000000000001d45       0x67 zephyr/libzephyr.a(fault_s.S.obj)
 .debug_line    0x0000000000001dac      0x2e4 zephyr/libzephyr.a(fatal.c.obj)
 .debug_line    0x0000000000002090      0x2e2 zephyr/libzephyr.a(sys_fatal_error_handler.c.obj)
 .debug_line    0x0000000000002372      0x2e1 zephyr/libzephyr.a(thread_abort.c.obj)
 .debug_line    0x0000000000002653       0x7c zephyr/libzephyr.a(isr_wrapper.S.obj)
 .debug_line    0x00000000000026cf       0x6d zephyr/libzephyr.a(reset.S.obj)
 .debug_line    0x000000000000273c       0x68 zephyr/libzephyr.a(nmi_on_reset.S.obj)
 .debug_line    0x00000000000027a4      0x253 zephyr/libzephyr.a(prep_c.c.obj)
 .debug_line    0x00000000000029f7      0x15c zephyr/libzephyr.a(nmi.c.obj)
 .debug_line    0x0000000000002b53      0x38b zephyr/libzephyr.a(arm_mpu.c.obj)
 .debug_line    0x0000000000002ede      0x11d zephyr/libzephyr.a(configs.c.obj)
 .debug_line    0x0000000000002ffb      0x207 zephyr/libzephyr.a(rand32_entropy_device.c.obj)
 .debug_line    0x0000000000003202      0x3c3 zephyr/libzephyr.a(nrf5_power_clock.c.obj)
 .debug_line    0x00000000000035c5      0x405 zephyr/libzephyr.a(gpio_nrf5.c.obj)
 .debug_line    0x00000000000039ca      0x410 zephyr/libzephyr.a(uart_nrf5.c.obj)
 .debug_line    0x0000000000003dda      0x355 zephyr/libzephyr.a(entropy_nrf5.c.obj)
 .debug_line    0x000000000000412f      0x156 zephyr/libzephyr.a(sys_clock_init.c.obj)
 .debug_line    0x0000000000004285      0x344 zephyr/libzephyr.a(nrf_rtc_timer.c.obj)
 .debug_line    0x00000000000045c9      0x261 zephyr/subsys/bluetooth/common/libsubsys__bluetooth__common.a(rpa.c.obj)
 .debug_line    0x000000000000482a      0x2cf zephyr/subsys/bluetooth/host/libsubsys__bluetooth__host.a(hci_raw.c.obj)
 .debug_line    0x0000000000004af9      0x1af zephyr/subsys/bluetooth/controller/libsubsys__bluetooth__controller.a(mem.c.obj)
 .debug_line    0x0000000000004ca8       0xbe zephyr/subsys/bluetooth/controller/libsubsys__bluetooth__controller.a(memq.c.obj)
 .debug_line    0x0000000000004d66      0x171 zephyr/subsys/bluetooth/controller/libsubsys__bluetooth__controller.a(mayfly.c.obj)
 .debug_line    0x0000000000004ed7       0x9c zephyr/subsys/bluetooth/controller/libsubsys__bluetooth__controller.a(util.c.obj)
 .debug_line    0x0000000000004f73      0x7bb zephyr/subsys/bluetooth/controller/libsubsys__bluetooth__controller.a(ticker.c.obj)
 .debug_line    0x000000000000572e      0x132 zephyr/subsys/bluetooth/controller/libsubsys__bluetooth__controller.a(ll_addr.c.obj)
 .debug_line    0x0000000000005860       0xa8 zephyr/subsys/bluetooth/controller/libsubsys__bluetooth__controller.a(ll_tx_pwr.c.obj)
 .debug_line    0x0000000000005908      0x30e zephyr/subsys/bluetooth/controller/libsubsys__bluetooth__controller.a(crypto.c.obj)
 .debug_line    0x0000000000005c16      0x540 zephyr/subsys/bluetooth/controller/libsubsys__bluetooth__controller.a(hci_driver.c.obj)
 .debug_line    0x0000000000006156      0xc90 zephyr/subsys/bluetooth/controller/libsubsys__bluetooth__controller.a(hci.c.obj)
 .debug_line    0x0000000000006de6     0x2fc3 zephyr/subsys/bluetooth/controller/libsubsys__bluetooth__controller.a(ctrl.c.obj)
 .debug_line    0x0000000000009da9      0x487 zephyr/subsys/bluetooth/controller/libsubsys__bluetooth__controller.a(ll.c.obj)
 .debug_line    0x000000000000a230      0x388 zephyr/subsys/bluetooth/controller/libsubsys__bluetooth__controller.a(ll_adv.c.obj)
 .debug_line    0x000000000000a5b8      0x1c4 zephyr/subsys/bluetooth/controller/libsubsys__bluetooth__controller.a(ll_scan.c.obj)
 .debug_line    0x000000000000a77c      0x1ac zephyr/subsys/bluetooth/controller/libsubsys__bluetooth__controller.a(ll_master.c.obj)
 .debug_line    0x000000000000a928      0x39f zephyr/subsys/bluetooth/controller/libsubsys__bluetooth__controller.a(ll_test.c.obj)
 .debug_line    0x000000000000acc7      0xa11 zephyr/subsys/bluetooth/controller/libsubsys__bluetooth__controller.a(ll_filter.c.obj)
 .debug_line    0x000000000000b6d8      0x317 zephyr/subsys/bluetooth/controller/libsubsys__bluetooth__controller.a(cntr.c.obj)
 .debug_line    0x000000000000b9ef      0x437 zephyr/subsys/bluetooth/controller/libsubsys__bluetooth__controller.a(ecb.c.obj)
 .debug_line    0x000000000000be26      0x9b7 zephyr/subsys/bluetooth/controller/libsubsys__bluetooth__controller.a(radio.c.obj)
 .debug_line    0x000000000000c7dd      0x358 zephyr/subsys/bluetooth/controller/libsubsys__bluetooth__controller.a(mayfly.c.obj)
 .debug_line    0x000000000000cb35      0x2ef zephyr/subsys/bluetooth/controller/libsubsys__bluetooth__controller.a(ticker.c.obj)
 .debug_line    0x000000000000ce24      0x816 zephyr/subsys/net/libsubsys__net.a(buf.c.obj)
 .debug_line    0x000000000000d63a      0x1a8 zephyr/kernel/libkernel.a(device.c.obj)
 .debug_line    0x000000000000d7e2      0x239 zephyr/kernel/libkernel.a(errno.c.obj)
 .debug_line    0x000000000000da1b      0x33d zephyr/kernel/libkernel.a(idle.c.obj)
 .debug_line    0x000000000000dd58      0x42b zephyr/kernel/libkernel.a(init.c.obj)
 .debug_line    0x000000000000e183      0x6ce zephyr/kernel/libkernel.a(mempool.c.obj)
 .debug_line    0x000000000000e851      0x448 zephyr/kernel/libkernel.a(queue.c.obj)
 .debug_line    0x000000000000ec99      0x79b zephyr/kernel/libkernel.a(sched.c.obj)
 .debug_line    0x000000000000f434      0x43c zephyr/kernel/libkernel.a(sem.c.obj)
 .debug_line    0x000000000000f870      0x4e8 zephyr/kernel/libkernel.a(sys_clock.c.obj)
 .debug_line    0x000000000000fd58      0x131 zephyr/kernel/libkernel.a(system_work_q.c.obj)
 .debug_line    0x000000000000fe89      0x762 zephyr/kernel/libkernel.a(thread.c.obj)
 .debug_line    0x00000000000105eb      0x559 zephyr/kernel/libkernel.a(work_q.c.obj)
 .debug_line    0x0000000000010b44      0x5dc zephyr/kernel/libkernel.a(timer.c.obj)
 .debug_line    0x0000000000011120      0x63d zephyr/kernel/libkernel.a(poll.c.obj)
 .debug_line    0x000000000001175d      0x2c3 zephyr/CMakeFiles/offsets.dir/arch/arm/core/offsets/offsets.c.obj
 .debug_line    0x0000000000011a20       0x89 /home/swap/directory/sysroots/armv5-zephyr-eabi/usr/lib/arm-zephyr-eabi/6.2.0/armv7e-m/libgcc.a(_aeabi_uldivmod.o)
 .debug_line    0x0000000000011aa9      0x1bc /home/swap/directory/sysroots/armv5-zephyr-eabi/usr/lib/arm-zephyr-eabi/6.2.0/armv7e-m/libgcc.a(_popcountsi2.o)
 .debug_line    0x0000000000011c65      0x2f9 /home/swap/directory/sysroots/armv5-zephyr-eabi/usr/lib/arm-zephyr-eabi/6.2.0/armv7e-m/libgcc.a(_udivmoddi4.o)
 .debug_line    0x0000000000011f5e       0x89 /home/swap/directory/sysroots/armv5-zephyr-eabi/usr/lib/arm-zephyr-eabi/6.2.0/armv7e-m/libgcc.a(_dvmd_tls.o)

.debug_str      0x0000000000000000     0xcdf5
 .debug_str     0x0000000000000000      0x1b0 zephyr/CMakeFiles/kernel_elf.dir/isr_tables.c.obj
                                        0x1c9 (size before relaxing)
 .debug_str     0x00000000000001b0       0xd5 libapp.a(string.c.obj)
                                        0x1e0 (size before relaxing)
 .debug_str     0x0000000000000285      0x794 libapp.a(main.c.obj)
                                        0xc4b (size before relaxing)
 .debug_str     0x0000000000000a19       0x78 zephyr/libzephyr.a(isr_tables.c.obj)
                                        0x234 (size before relaxing)
 .debug_str     0x0000000000000a91       0x80 zephyr/libzephyr.a(mpu_regions.c.obj)
                                        0x51a (size before relaxing)
 .debug_str     0x0000000000000b11      0x61a zephyr/libzephyr.a(soc.c.obj)
                                        0xb34 (size before relaxing)
 .debug_str     0x000000000000112b      0x362 zephyr/libzephyr.a(irq_init.c.obj)
                                        0x885 (size before relaxing)
 .debug_str     0x000000000000148d       0x8d zephyr/libzephyr.a(swap.c.obj)
                                        0x5d9 (size before relaxing)
 .debug_str     0x000000000000151a       0xda zephyr/libzephyr.a(fault.c.obj)
                                        0x66c (size before relaxing)
 .debug_str     0x00000000000015f4      0x147 zephyr/libzephyr.a(irq_manage.c.obj)
                                        0xa5c (size before relaxing)
 .debug_str     0x000000000000173b       0xcf zephyr/libzephyr.a(thread.c.obj)
                                        0x66e (size before relaxing)
 .debug_str     0x000000000000180a       0xa0 zephyr/libzephyr.a(fatal.c.obj)
                                        0x614 (size before relaxing)
 .debug_str     0x00000000000018aa       0x87 zephyr/libzephyr.a(sys_fatal_error_handler.c.obj)
                                        0x601 (size before relaxing)
 .debug_str     0x0000000000001931       0x7f zephyr/libzephyr.a(thread_abort.c.obj)
                                        0x670 (size before relaxing)
 .debug_str     0x00000000000019b0      0x1bb zephyr/libzephyr.a(prep_c.c.obj)
                                        0x6c2 (size before relaxing)
 .debug_str     0x0000000000001b6b       0x4d zephyr/libzephyr.a(nmi.c.obj)
                                        0x44d (size before relaxing)
 .debug_str     0x0000000000001bb8      0x1cc zephyr/libzephyr.a(arm_mpu.c.obj)
                                        0x8dd (size before relaxing)
 .debug_str     0x0000000000001d84       0x2f zephyr/libzephyr.a(configs.c.obj)
                                        0x13b (size before relaxing)
 .debug_str     0x0000000000001db3       0xf2 zephyr/libzephyr.a(rand32_entropy_device.c.obj)
                                        0x5e7 (size before relaxing)
 .debug_str     0x0000000000001ea5      0x263 zephyr/libzephyr.a(nrf5_power_clock.c.obj)
                                        0xdcf (size before relaxing)
 .debug_str     0x0000000000002108      0x4a1 zephyr/libzephyr.a(gpio_nrf5.c.obj)
                                        0xab7 (size before relaxing)
 .debug_str     0x00000000000025a9      0x3fb zephyr/libzephyr.a(uart_nrf5.c.obj)
                                        0xc34 (size before relaxing)
 .debug_str     0x00000000000029a4      0x19c zephyr/libzephyr.a(entropy_nrf5.c.obj)
                                        0x79f (size before relaxing)
 .debug_str     0x0000000000002b40       0x85 zephyr/libzephyr.a(sys_clock_init.c.obj)
                                        0x548 (size before relaxing)
 .debug_str     0x0000000000002bc5      0x1cc zephyr/libzephyr.a(nrf_rtc_timer.c.obj)
                                        0xb48 (size before relaxing)
 .debug_str     0x0000000000002d91       0x71 zephyr/subsys/bluetooth/common/libsubsys__bluetooth__common.a(rpa.c.obj)
                                        0x54a (size before relaxing)
 .debug_str     0x0000000000002e02      0x2f0 zephyr/subsys/bluetooth/host/libsubsys__bluetooth__host.a(hci_raw.c.obj)
                                        0x8de (size before relaxing)
 .debug_str     0x00000000000030f2       0xd7 zephyr/subsys/bluetooth/controller/libsubsys__bluetooth__controller.a(mem.c.obj)
                                        0x2b5 (size before relaxing)
 .debug_str     0x00000000000031c9       0x7f zephyr/subsys/bluetooth/controller/libsubsys__bluetooth__controller.a(memq.c.obj)
                                        0x208 (size before relaxing)
 .debug_str     0x0000000000003248      0x103 zephyr/subsys/bluetooth/controller/libsubsys__bluetooth__controller.a(mayfly.c.obj)
                                        0x310 (size before relaxing)
 .debug_str     0x000000000000334b       0x68 zephyr/subsys/bluetooth/controller/libsubsys__bluetooth__controller.a(util.c.obj)
                                        0x1e9 (size before relaxing)
 .debug_str     0x00000000000033b3      0x7a5 zephyr/subsys/bluetooth/controller/libsubsys__bluetooth__controller.a(ticker.c.obj)
                                        0xdd7 (size before relaxing)
 .debug_str     0x0000000000003b58       0x94 zephyr/subsys/bluetooth/controller/libsubsys__bluetooth__controller.a(ll_addr.c.obj)
                                        0x22e (size before relaxing)
 .debug_str     0x0000000000003bec       0x6b zephyr/subsys/bluetooth/controller/libsubsys__bluetooth__controller.a(ll_tx_pwr.c.obj)
                                        0x202 (size before relaxing)
 .debug_str     0x0000000000003c57       0x7a zephyr/subsys/bluetooth/controller/libsubsys__bluetooth__controller.a(crypto.c.obj)
                                        0x5f0 (size before relaxing)
 .debug_str     0x0000000000003cd1      0x4c4 zephyr/subsys/bluetooth/controller/libsubsys__bluetooth__controller.a(hci_driver.c.obj)
                                        0xefd (size before relaxing)
 .debug_str     0x0000000000004195     0x22d0 zephyr/subsys/bluetooth/controller/libsubsys__bluetooth__controller.a(hci.c.obj)
                                       0x35ac (size before relaxing)
 .debug_str     0x0000000000006465     0x276f zephyr/subsys/bluetooth/controller/libsubsys__bluetooth__controller.a(ctrl.c.obj)
                                       0x4535 (size before relaxing)
 .debug_str     0x0000000000008bd4      0x1b0 zephyr/subsys/bluetooth/controller/libsubsys__bluetooth__controller.a(ll.c.obj)
                                        0x9da (size before relaxing)
 .debug_str     0x0000000000008d84      0x15c zephyr/subsys/bluetooth/controller/libsubsys__bluetooth__controller.a(ll_adv.c.obj)
                                        0xb0d (size before relaxing)
 .debug_str     0x0000000000008ee0       0x5d zephyr/subsys/bluetooth/controller/libsubsys__bluetooth__controller.a(ll_scan.c.obj)
                                        0x616 (size before relaxing)
 .debug_str     0x0000000000008f3d       0x40 zephyr/subsys/bluetooth/controller/libsubsys__bluetooth__controller.a(ll_master.c.obj)
                                        0x554 (size before relaxing)
 .debug_str     0x0000000000008f7d       0xdb zephyr/subsys/bluetooth/controller/libsubsys__bluetooth__controller.a(ll_test.c.obj)
                                        0x8d8 (size before relaxing)
 .debug_str     0x0000000000009058      0x21d zephyr/subsys/bluetooth/controller/libsubsys__bluetooth__controller.a(ll_filter.c.obj)
                                        0xf85 (size before relaxing)
 .debug_str     0x0000000000009275       0x55 zephyr/subsys/bluetooth/controller/libsubsys__bluetooth__controller.a(cntr.c.obj)
                                        0x6c9 (size before relaxing)
 .debug_str     0x00000000000092ca      0x171 zephyr/subsys/bluetooth/controller/libsubsys__bluetooth__controller.a(ecb.c.obj)
                                        0xafb (size before relaxing)
 .debug_str     0x000000000000943b      0x7b5 zephyr/subsys/bluetooth/controller/libsubsys__bluetooth__controller.a(radio.c.obj)
                                       0x16f0 (size before relaxing)
 .debug_str     0x0000000000009bf0       0x40 zephyr/subsys/bluetooth/controller/libsubsys__bluetooth__controller.a(mayfly.c.obj)
                                        0x99a (size before relaxing)
 .debug_str     0x0000000000009c30       0xad zephyr/subsys/bluetooth/controller/libsubsys__bluetooth__controller.a(ticker.c.obj)
                                        0x6fe (size before relaxing)
 .debug_str     0x0000000000009cdd      0x416 zephyr/subsys/net/libsubsys__net.a(buf.c.obj)
                                        0xbe3 (size before relaxing)
 .debug_str     0x000000000000a0f3      0x10b zephyr/kernel/libkernel.a(device.c.obj)
                                        0x5ea (size before relaxing)
 .debug_str     0x000000000000a1fe       0x29 zephyr/kernel/libkernel.a(errno.c.obj)
                                        0x55d (size before relaxing)
 .debug_str     0x000000000000a227      0x10d zephyr/kernel/libkernel.a(idle.c.obj)
                                        0x6cf (size before relaxing)
 .debug_str     0x000000000000a334      0x1ba zephyr/kernel/libkernel.a(init.c.obj)
                                        0xcff (size before relaxing)
 .debug_str     0x000000000000a4ee      0x306 zephyr/kernel/libkernel.a(mempool.c.obj)
                                        0xada (size before relaxing)
 .debug_str     0x000000000000a7f4       0xe6 zephyr/kernel/libkernel.a(queue.c.obj)
                                        0x92d (size before relaxing)
 .debug_str     0x000000000000a8da      0x40a zephyr/kernel/libkernel.a(sched.c.obj)
                                        0xc9e (size before relaxing)
 .debug_str     0x000000000000ace4      0x101 zephyr/kernel/libkernel.a(sem.c.obj)
                                        0xa10 (size before relaxing)
 .debug_str     0x000000000000ade5       0xd8 zephyr/kernel/libkernel.a(sys_clock.c.obj)
                                        0x8db (size before relaxing)
 .debug_str     0x000000000000aebd       0xa5 zephyr/kernel/libkernel.a(system_work_q.c.obj)
                                        0x56d (size before relaxing)
 .debug_str     0x000000000000af62      0x2b2 zephyr/kernel/libkernel.a(thread.c.obj)
                                        0xd54 (size before relaxing)
 .debug_str     0x000000000000b214       0xa3 zephyr/kernel/libkernel.a(work_q.c.obj)
                                        0xada (size before relaxing)
 .debug_str     0x000000000000b2b7      0x120 zephyr/kernel/libkernel.a(timer.c.obj)
                                        0xac4 (size before relaxing)
 .debug_str     0x000000000000b3d7      0x1e1 zephyr/kernel/libkernel.a(poll.c.obj)
                                        0xc7a (size before relaxing)
 .debug_str     0x000000000000b5b8      0xbd7 zephyr/CMakeFiles/offsets.dir/arch/arm/core/offsets/offsets.c.obj
                                       0x10fd (size before relaxing)
 .debug_str     0x000000000000c18f      0xb6f /home/swap/directory/sysroots/armv5-zephyr-eabi/usr/lib/arm-zephyr-eabi/6.2.0/armv7e-m/libgcc.a(_popcountsi2.o)
                                        0xc51 (size before relaxing)
 .debug_str     0x000000000000ccfe       0xf7 /home/swap/directory/sysroots/armv5-zephyr-eabi/usr/lib/arm-zephyr-eabi/6.2.0/armv7e-m/libgcc.a(_udivmoddi4.o)
                                        0xcac (size before relaxing)

.comment        0x0000000000000000       0x11
 .comment       0x0000000000000000       0x11 zephyr/CMakeFiles/kernel_elf.dir/isr_tables.c.obj
                                         0x12 (size before relaxing)
 .comment       0x0000000000000011       0x12 libapp.a(string.c.obj)
 .comment       0x0000000000000011       0x12 libapp.a(main.c.obj)
 .comment       0x0000000000000011       0x12 zephyr/libzephyr.a(isr_tables.c.obj)
 .comment       0x0000000000000011       0x12 zephyr/libzephyr.a(mpu_regions.c.obj)
 .comment       0x0000000000000011       0x12 zephyr/libzephyr.a(soc.c.obj)
 .comment       0x0000000000000011       0x12 zephyr/libzephyr.a(irq_init.c.obj)
 .comment       0x0000000000000011       0x12 zephyr/libzephyr.a(swap.c.obj)
 .comment       0x0000000000000011       0x12 zephyr/libzephyr.a(fault.c.obj)
 .comment       0x0000000000000011       0x12 zephyr/libzephyr.a(irq_manage.c.obj)
 .comment       0x0000000000000011       0x12 zephyr/libzephyr.a(thread.c.obj)
 .comment       0x0000000000000011       0x12 zephyr/libzephyr.a(fatal.c.obj)
 .comment       0x0000000000000011       0x12 zephyr/libzephyr.a(sys_fatal_error_handler.c.obj)
 .comment       0x0000000000000011       0x12 zephyr/libzephyr.a(thread_abort.c.obj)
 .comment       0x0000000000000011       0x12 zephyr/libzephyr.a(prep_c.c.obj)
 .comment       0x0000000000000011       0x12 zephyr/libzephyr.a(nmi.c.obj)
 .comment       0x0000000000000011       0x12 zephyr/libzephyr.a(arm_mpu.c.obj)
 .comment       0x0000000000000011       0x12 zephyr/libzephyr.a(configs.c.obj)
 .comment       0x0000000000000011       0x12 zephyr/libzephyr.a(rand32_entropy_device.c.obj)
 .comment       0x0000000000000011       0x12 zephyr/libzephyr.a(nrf5_power_clock.c.obj)
 .comment       0x0000000000000011       0x12 zephyr/libzephyr.a(gpio_nrf5.c.obj)
 .comment       0x0000000000000011       0x12 zephyr/libzephyr.a(uart_nrf5.c.obj)
 .comment       0x0000000000000011       0x12 zephyr/libzephyr.a(entropy_nrf5.c.obj)
 .comment       0x0000000000000011       0x12 zephyr/libzephyr.a(sys_clock_init.c.obj)
 .comment       0x0000000000000011       0x12 zephyr/libzephyr.a(nrf_rtc_timer.c.obj)
 .comment       0x0000000000000011       0x12 zephyr/subsys/bluetooth/common/libsubsys__bluetooth__common.a(rpa.c.obj)
 .comment       0x0000000000000011       0x12 zephyr/subsys/bluetooth/host/libsubsys__bluetooth__host.a(hci_raw.c.obj)
 .comment       0x0000000000000011       0x12 zephyr/subsys/bluetooth/controller/libsubsys__bluetooth__controller.a(mem.c.obj)
 .comment       0x0000000000000011       0x12 zephyr/subsys/bluetooth/controller/libsubsys__bluetooth__controller.a(memq.c.obj)
 .comment       0x0000000000000011       0x12 zephyr/subsys/bluetooth/controller/libsubsys__bluetooth__controller.a(mayfly.c.obj)
 .comment       0x0000000000000011       0x12 zephyr/subsys/bluetooth/controller/libsubsys__bluetooth__controller.a(util.c.obj)
 .comment       0x0000000000000011       0x12 zephyr/subsys/bluetooth/controller/libsubsys__bluetooth__controller.a(ticker.c.obj)
 .comment       0x0000000000000011       0x12 zephyr/subsys/bluetooth/controller/libsubsys__bluetooth__controller.a(ll_addr.c.obj)
 .comment       0x0000000000000011       0x12 zephyr/subsys/bluetooth/controller/libsubsys__bluetooth__controller.a(ll_tx_pwr.c.obj)
 .comment       0x0000000000000011       0x12 zephyr/subsys/bluetooth/controller/libsubsys__bluetooth__controller.a(crypto.c.obj)
 .comment       0x0000000000000011       0x12 zephyr/subsys/bluetooth/controller/libsubsys__bluetooth__controller.a(hci_driver.c.obj)
 .comment       0x0000000000000011       0x12 zephyr/subsys/bluetooth/controller/libsubsys__bluetooth__controller.a(hci.c.obj)
 .comment       0x0000000000000011       0x12 zephyr/subsys/bluetooth/controller/libsubsys__bluetooth__controller.a(ctrl.c.obj)
 .comment       0x0000000000000011       0x12 zephyr/subsys/bluetooth/controller/libsubsys__bluetooth__controller.a(ll.c.obj)
 .comment       0x0000000000000011       0x12 zephyr/subsys/bluetooth/controller/libsubsys__bluetooth__controller.a(ll_adv.c.obj)
 .comment       0x0000000000000011       0x12 zephyr/subsys/bluetooth/controller/libsubsys__bluetooth__controller.a(ll_scan.c.obj)
 .comment       0x0000000000000011       0x12 zephyr/subsys/bluetooth/controller/libsubsys__bluetooth__controller.a(ll_master.c.obj)
 .comment       0x0000000000000011       0x12 zephyr/subsys/bluetooth/controller/libsubsys__bluetooth__controller.a(ll_test.c.obj)
 .comment       0x0000000000000011       0x12 zephyr/subsys/bluetooth/controller/libsubsys__bluetooth__controller.a(ll_filter.c.obj)
 .comment       0x0000000000000011       0x12 zephyr/subsys/bluetooth/controller/libsubsys__bluetooth__controller.a(cntr.c.obj)
 .comment       0x0000000000000011       0x12 zephyr/subsys/bluetooth/controller/libsubsys__bluetooth__controller.a(ecb.c.obj)
 .comment       0x0000000000000011       0x12 zephyr/subsys/bluetooth/controller/libsubsys__bluetooth__controller.a(radio.c.obj)
 .comment       0x0000000000000011       0x12 zephyr/subsys/bluetooth/controller/libsubsys__bluetooth__controller.a(mayfly.c.obj)
 .comment       0x0000000000000011       0x12 zephyr/subsys/bluetooth/controller/libsubsys__bluetooth__controller.a(ticker.c.obj)
 .comment       0x0000000000000011       0x12 zephyr/subsys/net/libsubsys__net.a(buf.c.obj)
 .comment       0x0000000000000011       0x12 zephyr/kernel/libkernel.a(device.c.obj)
 .comment       0x0000000000000011       0x12 zephyr/kernel/libkernel.a(errno.c.obj)
 .comment       0x0000000000000011       0x12 zephyr/kernel/libkernel.a(idle.c.obj)
 .comment       0x0000000000000011       0x12 zephyr/kernel/libkernel.a(init.c.obj)
 .comment       0x0000000000000011       0x12 zephyr/kernel/libkernel.a(mempool.c.obj)
 .comment       0x0000000000000011       0x12 zephyr/kernel/libkernel.a(queue.c.obj)
 .comment       0x0000000000000011       0x12 zephyr/kernel/libkernel.a(sched.c.obj)
 .comment       0x0000000000000011       0x12 zephyr/kernel/libkernel.a(sem.c.obj)
 .comment       0x0000000000000011       0x12 zephyr/kernel/libkernel.a(sys_clock.c.obj)
 .comment       0x0000000000000011       0x12 zephyr/kernel/libkernel.a(system_work_q.c.obj)
 .comment       0x0000000000000011       0x12 zephyr/kernel/libkernel.a(thread.c.obj)
 .comment       0x0000000000000011       0x12 zephyr/kernel/libkernel.a(work_q.c.obj)
 .comment       0x0000000000000011       0x12 zephyr/kernel/libkernel.a(timer.c.obj)
 .comment       0x0000000000000011       0x12 zephyr/kernel/libkernel.a(poll.c.obj)
 .comment       0x0000000000000011       0x12 zephyr/CMakeFiles/offsets.dir/arch/arm/core/offsets/offsets.c.obj
 .comment       0x0000000000000011       0x12 /home/swap/directory/sysroots/armv5-zephyr-eabi/usr/lib/arm-zephyr-eabi/6.2.0/armv7e-m/libgcc.a(_popcountsi2.o)
 .comment       0x0000000000000011       0x12 /home/swap/directory/sysroots/armv5-zephyr-eabi/usr/lib/arm-zephyr-eabi/6.2.0/armv7e-m/libgcc.a(_udivmoddi4.o)

.ARM.attributes
                0x0000000000000000       0x31
 .ARM.attributes
                0x0000000000000000       0x33 zephyr/CMakeFiles/kernel_elf.dir/isr_tables.c.obj
 .ARM.attributes
                0x0000000000000033       0x33 libapp.a(string.c.obj)
 .ARM.attributes
                0x0000000000000066       0x33 libapp.a(main.c.obj)
 .ARM.attributes
                0x0000000000000099       0x33 zephyr/libzephyr.a(isr_tables.c.obj)
 .ARM.attributes
                0x00000000000000cc       0x33 zephyr/libzephyr.a(mpu_regions.c.obj)
 .ARM.attributes
                0x00000000000000ff       0x33 zephyr/libzephyr.a(soc.c.obj)
 .ARM.attributes
                0x0000000000000132       0x21 zephyr/libzephyr.a(exc_exit.S.obj)
 .ARM.attributes
                0x0000000000000153       0x33 zephyr/libzephyr.a(irq_init.c.obj)
 .ARM.attributes
                0x0000000000000186       0x33 zephyr/libzephyr.a(swap.c.obj)
 .ARM.attributes
                0x00000000000001b9       0x21 zephyr/libzephyr.a(swap_helper.S.obj)
 .ARM.attributes
                0x00000000000001da       0x33 zephyr/libzephyr.a(fault.c.obj)
 .ARM.attributes
                0x000000000000020d       0x33 zephyr/libzephyr.a(irq_manage.c.obj)
 .ARM.attributes
                0x0000000000000240       0x33 zephyr/libzephyr.a(thread.c.obj)
 .ARM.attributes
                0x0000000000000273       0x21 zephyr/libzephyr.a(cpu_idle.S.obj)
 .ARM.attributes
                0x0000000000000294       0x21 zephyr/libzephyr.a(fault_s.S.obj)
 .ARM.attributes
                0x00000000000002b5       0x33 zephyr/libzephyr.a(fatal.c.obj)
 .ARM.attributes
                0x00000000000002e8       0x33 zephyr/libzephyr.a(sys_fatal_error_handler.c.obj)
 .ARM.attributes
                0x000000000000031b       0x33 zephyr/libzephyr.a(thread_abort.c.obj)
 .ARM.attributes
                0x000000000000034e       0x21 zephyr/libzephyr.a(isr_wrapper.S.obj)
 .ARM.attributes
                0x000000000000036f       0x21 zephyr/libzephyr.a(vector_table.S.obj)
 .ARM.attributes
                0x0000000000000390       0x21 zephyr/libzephyr.a(reset.S.obj)
 .ARM.attributes
                0x00000000000003b1       0x21 zephyr/libzephyr.a(nmi_on_reset.S.obj)
 .ARM.attributes
                0x00000000000003d2       0x33 zephyr/libzephyr.a(prep_c.c.obj)
 .ARM.attributes
                0x0000000000000405       0x33 zephyr/libzephyr.a(nmi.c.obj)
 .ARM.attributes
                0x0000000000000438       0x33 zephyr/libzephyr.a(arm_mpu.c.obj)
 .ARM.attributes
                0x000000000000046b       0x33 zephyr/libzephyr.a(configs.c.obj)
 .ARM.attributes
                0x000000000000049e       0x33 zephyr/libzephyr.a(rand32_entropy_device.c.obj)
 .ARM.attributes
                0x00000000000004d1       0x33 zephyr/libzephyr.a(nrf5_power_clock.c.obj)
 .ARM.attributes
                0x0000000000000504       0x33 zephyr/libzephyr.a(gpio_nrf5.c.obj)
 .ARM.attributes
                0x0000000000000537       0x33 zephyr/libzephyr.a(uart_nrf5.c.obj)
 .ARM.attributes
                0x000000000000056a       0x33 zephyr/libzephyr.a(entropy_nrf5.c.obj)
 .ARM.attributes
                0x000000000000059d       0x33 zephyr/libzephyr.a(sys_clock_init.c.obj)
 .ARM.attributes
                0x00000000000005d0       0x33 zephyr/libzephyr.a(nrf_rtc_timer.c.obj)
 .ARM.attributes
                0x0000000000000603       0x33 zephyr/subsys/bluetooth/common/libsubsys__bluetooth__common.a(rpa.c.obj)
 .ARM.attributes
                0x0000000000000636       0x33 zephyr/subsys/bluetooth/host/libsubsys__bluetooth__host.a(hci_raw.c.obj)
 .ARM.attributes
                0x0000000000000669       0x33 zephyr/subsys/bluetooth/controller/libsubsys__bluetooth__controller.a(mem.c.obj)
 .ARM.attributes
                0x000000000000069c       0x33 zephyr/subsys/bluetooth/controller/libsubsys__bluetooth__controller.a(memq.c.obj)
 .ARM.attributes
                0x00000000000006cf       0x33 zephyr/subsys/bluetooth/controller/libsubsys__bluetooth__controller.a(mayfly.c.obj)
 .ARM.attributes
                0x0000000000000702       0x33 zephyr/subsys/bluetooth/controller/libsubsys__bluetooth__controller.a(util.c.obj)
 .ARM.attributes
                0x0000000000000735       0x33 zephyr/subsys/bluetooth/controller/libsubsys__bluetooth__controller.a(ticker.c.obj)
 .ARM.attributes
                0x0000000000000768       0x33 zephyr/subsys/bluetooth/controller/libsubsys__bluetooth__controller.a(ll_addr.c.obj)
 .ARM.attributes
                0x000000000000079b       0x33 zephyr/subsys/bluetooth/controller/libsubsys__bluetooth__controller.a(ll_tx_pwr.c.obj)
 .ARM.attributes
                0x00000000000007ce       0x33 zephyr/subsys/bluetooth/controller/libsubsys__bluetooth__controller.a(crypto.c.obj)
 .ARM.attributes
                0x0000000000000801       0x33 zephyr/subsys/bluetooth/controller/libsubsys__bluetooth__controller.a(hci_driver.c.obj)
 .ARM.attributes
                0x0000000000000834       0x33 zephyr/subsys/bluetooth/controller/libsubsys__bluetooth__controller.a(hci.c.obj)
 .ARM.attributes
                0x0000000000000867       0x33 zephyr/subsys/bluetooth/controller/libsubsys__bluetooth__controller.a(ctrl.c.obj)
 .ARM.attributes
                0x000000000000089a       0x33 zephyr/subsys/bluetooth/controller/libsubsys__bluetooth__controller.a(ll.c.obj)
 .ARM.attributes
                0x00000000000008cd       0x33 zephyr/subsys/bluetooth/controller/libsubsys__bluetooth__controller.a(ll_adv.c.obj)
 .ARM.attributes
                0x0000000000000900       0x33 zephyr/subsys/bluetooth/controller/libsubsys__bluetooth__controller.a(ll_scan.c.obj)
 .ARM.attributes
                0x0000000000000933       0x33 zephyr/subsys/bluetooth/controller/libsubsys__bluetooth__controller.a(ll_master.c.obj)
 .ARM.attributes
                0x0000000000000966       0x33 zephyr/subsys/bluetooth/controller/libsubsys__bluetooth__controller.a(ll_test.c.obj)
 .ARM.attributes
                0x0000000000000999       0x33 zephyr/subsys/bluetooth/controller/libsubsys__bluetooth__controller.a(ll_filter.c.obj)
 .ARM.attributes
                0x00000000000009cc       0x33 zephyr/subsys/bluetooth/controller/libsubsys__bluetooth__controller.a(cntr.c.obj)
 .ARM.attributes
                0x00000000000009ff       0x33 zephyr/subsys/bluetooth/controller/libsubsys__bluetooth__controller.a(ecb.c.obj)
 .ARM.attributes
                0x0000000000000a32       0x33 zephyr/subsys/bluetooth/controller/libsubsys__bluetooth__controller.a(radio.c.obj)
 .ARM.attributes
                0x0000000000000a65       0x33 zephyr/subsys/bluetooth/controller/libsubsys__bluetooth__controller.a(mayfly.c.obj)
 .ARM.attributes
                0x0000000000000a98       0x33 zephyr/subsys/bluetooth/controller/libsubsys__bluetooth__controller.a(ticker.c.obj)
 .ARM.attributes
                0x0000000000000acb       0x33 zephyr/subsys/net/libsubsys__net.a(buf.c.obj)
 .ARM.attributes
                0x0000000000000afe       0x33 zephyr/kernel/libkernel.a(device.c.obj)
 .ARM.attributes
                0x0000000000000b31       0x33 zephyr/kernel/libkernel.a(errno.c.obj)
 .ARM.attributes
                0x0000000000000b64       0x33 zephyr/kernel/libkernel.a(idle.c.obj)
 .ARM.attributes
                0x0000000000000b97       0x33 zephyr/kernel/libkernel.a(init.c.obj)
 .ARM.attributes
                0x0000000000000bca       0x33 zephyr/kernel/libkernel.a(mempool.c.obj)
 .ARM.attributes
                0x0000000000000bfd       0x33 zephyr/kernel/libkernel.a(queue.c.obj)
 .ARM.attributes
                0x0000000000000c30       0x33 zephyr/kernel/libkernel.a(sched.c.obj)
 .ARM.attributes
                0x0000000000000c63       0x33 zephyr/kernel/libkernel.a(sem.c.obj)
 .ARM.attributes
                0x0000000000000c96       0x33 zephyr/kernel/libkernel.a(sys_clock.c.obj)
 .ARM.attributes
                0x0000000000000cc9       0x33 zephyr/kernel/libkernel.a(system_work_q.c.obj)
 .ARM.attributes
                0x0000000000000cfc       0x33 zephyr/kernel/libkernel.a(thread.c.obj)
 .ARM.attributes
                0x0000000000000d2f       0x33 zephyr/kernel/libkernel.a(work_q.c.obj)
 .ARM.attributes
                0x0000000000000d62       0x33 zephyr/kernel/libkernel.a(timer.c.obj)
 .ARM.attributes
                0x0000000000000d95       0x33 zephyr/kernel/libkernel.a(poll.c.obj)
 .ARM.attributes
                0x0000000000000dc8       0x33 zephyr/CMakeFiles/offsets.dir/arch/arm/core/offsets/offsets.c.obj
 .ARM.attributes
                0x0000000000000dfb       0x1e /home/swap/directory/sysroots/armv5-zephyr-eabi/usr/lib/arm-zephyr-eabi/6.2.0/armv7e-m/libgcc.a(_aeabi_uldivmod.o)
 .ARM.attributes
                0x0000000000000e19       0x2e /home/swap/directory/sysroots/armv5-zephyr-eabi/usr/lib/arm-zephyr-eabi/6.2.0/armv7e-m/libgcc.a(_popcountsi2.o)
 .ARM.attributes
                0x0000000000000e47       0x2e /home/swap/directory/sysroots/armv5-zephyr-eabi/usr/lib/arm-zephyr-eabi/6.2.0/armv7e-m/libgcc.a(_udivmoddi4.o)
 .ARM.attributes
                0x0000000000000e75       0x1e /home/swap/directory/sysroots/armv5-zephyr-eabi/usr/lib/arm-zephyr-eabi/6.2.0/armv7e-m/libgcc.a(_dvmd_tls.o)

.debug_loc      0x0000000000000000    0x20356
 .debug_loc     0x0000000000000000      0x8f5 libapp.a(string.c.obj)
 .debug_loc     0x00000000000008f5      0x782 libapp.a(main.c.obj)
 .debug_loc     0x0000000000001077       0x21 zephyr/libzephyr.a(soc.c.obj)
 .debug_loc     0x0000000000001098       0x5e zephyr/libzephyr.a(irq_init.c.obj)
 .debug_loc     0x00000000000010f6       0x35 zephyr/libzephyr.a(swap.c.obj)
 .debug_loc     0x000000000000112b      0x15a zephyr/libzephyr.a(fault.c.obj)
 .debug_loc     0x0000000000001285      0x156 zephyr/libzephyr.a(irq_manage.c.obj)
 .debug_loc     0x00000000000013db      0x209 zephyr/libzephyr.a(thread.c.obj)
 .debug_loc     0x00000000000015e4       0xd6 zephyr/libzephyr.a(fatal.c.obj)
 .debug_loc     0x00000000000016ba       0x42 zephyr/libzephyr.a(sys_fatal_error_handler.c.obj)
 .debug_loc     0x00000000000016fc       0x3f zephyr/libzephyr.a(thread_abort.c.obj)
 .debug_loc     0x000000000000173b      0x3d8 zephyr/libzephyr.a(arm_mpu.c.obj)
 .debug_loc     0x0000000000001b13       0xb1 zephyr/libzephyr.a(rand32_entropy_device.c.obj)
 .debug_loc     0x0000000000001bc4      0x35b zephyr/libzephyr.a(nrf5_power_clock.c.obj)
 .debug_loc     0x0000000000001f1f      0xa00 zephyr/libzephyr.a(gpio_nrf5.c.obj)
 .debug_loc     0x000000000000291f      0x525 zephyr/libzephyr.a(uart_nrf5.c.obj)
 .debug_loc     0x0000000000002e44      0x696 zephyr/libzephyr.a(entropy_nrf5.c.obj)
 .debug_loc     0x00000000000034da      0x1bd zephyr/libzephyr.a(nrf_rtc_timer.c.obj)
 .debug_loc     0x0000000000003697      0x188 zephyr/subsys/bluetooth/common/libsubsys__bluetooth__common.a(rpa.c.obj)
 .debug_loc     0x000000000000381f      0x1e5 zephyr/subsys/bluetooth/host/libsubsys__bluetooth__host.a(hci_raw.c.obj)
 .debug_loc     0x0000000000003a04      0x3d9 zephyr/subsys/bluetooth/controller/libsubsys__bluetooth__controller.a(mem.c.obj)
 .debug_loc     0x0000000000003ddd      0x11f zephyr/subsys/bluetooth/controller/libsubsys__bluetooth__controller.a(memq.c.obj)
 .debug_loc     0x0000000000003efc      0x3fd zephyr/subsys/bluetooth/controller/libsubsys__bluetooth__controller.a(mayfly.c.obj)
 .debug_loc     0x00000000000042f9       0x73 zephyr/subsys/bluetooth/controller/libsubsys__bluetooth__controller.a(util.c.obj)
 .debug_loc     0x000000000000436c     0x234f zephyr/subsys/bluetooth/controller/libsubsys__bluetooth__controller.a(ticker.c.obj)
 .debug_loc     0x00000000000066bb       0xdc zephyr/subsys/bluetooth/controller/libsubsys__bluetooth__controller.a(ll_addr.c.obj)
 .debug_loc     0x0000000000006797       0x21 zephyr/subsys/bluetooth/controller/libsubsys__bluetooth__controller.a(ll_tx_pwr.c.obj)
 .debug_loc     0x00000000000067b8      0x10d zephyr/subsys/bluetooth/controller/libsubsys__bluetooth__controller.a(crypto.c.obj)
 .debug_loc     0x00000000000068c5      0x7b5 zephyr/subsys/bluetooth/controller/libsubsys__bluetooth__controller.a(hci_driver.c.obj)
 .debug_loc     0x000000000000707a     0x5a28 zephyr/subsys/bluetooth/controller/libsubsys__bluetooth__controller.a(hci.c.obj)
 .debug_loc     0x000000000000caa2     0x9326 zephyr/subsys/bluetooth/controller/libsubsys__bluetooth__controller.a(ctrl.c.obj)
 .debug_loc     0x0000000000015dc8      0x176 zephyr/subsys/bluetooth/controller/libsubsys__bluetooth__controller.a(ll.c.obj)
 .debug_loc     0x0000000000015f3e      0x812 zephyr/subsys/bluetooth/controller/libsubsys__bluetooth__controller.a(ll_adv.c.obj)
 .debug_loc     0x0000000000016750      0x121 zephyr/subsys/bluetooth/controller/libsubsys__bluetooth__controller.a(ll_scan.c.obj)
 .debug_loc     0x0000000000016871      0x1ca zephyr/subsys/bluetooth/controller/libsubsys__bluetooth__controller.a(ll_master.c.obj)
 .debug_loc     0x0000000000016a3b      0x438 zephyr/subsys/bluetooth/controller/libsubsys__bluetooth__controller.a(ll_test.c.obj)
 .debug_loc     0x0000000000016e73     0x1124 zephyr/subsys/bluetooth/controller/libsubsys__bluetooth__controller.a(ll_filter.c.obj)
 .debug_loc     0x0000000000017f97       0x21 zephyr/subsys/bluetooth/controller/libsubsys__bluetooth__controller.a(cntr.c.obj)
 .debug_loc     0x0000000000017fb8      0x29a zephyr/subsys/bluetooth/controller/libsubsys__bluetooth__controller.a(ecb.c.obj)
 .debug_loc     0x0000000000018252      0x975 zephyr/subsys/bluetooth/controller/libsubsys__bluetooth__controller.a(radio.c.obj)
 .debug_loc     0x0000000000018bc7      0x1d3 zephyr/subsys/bluetooth/controller/libsubsys__bluetooth__controller.a(mayfly.c.obj)
 .debug_loc     0x0000000000018d9a      0x223 zephyr/subsys/bluetooth/controller/libsubsys__bluetooth__controller.a(ticker.c.obj)
 .debug_loc     0x0000000000018fbd      0xf5d zephyr/subsys/net/libsubsys__net.a(buf.c.obj)
 .debug_loc     0x0000000000019f1a       0xf5 zephyr/kernel/libkernel.a(device.c.obj)
 .debug_loc     0x000000000001a00f       0x8f zephyr/kernel/libkernel.a(idle.c.obj)
 .debug_loc     0x000000000001a09e      0x1db zephyr/kernel/libkernel.a(init.c.obj)
 .debug_loc     0x000000000001a279      0xd2b zephyr/kernel/libkernel.a(mempool.c.obj)
 .debug_loc     0x000000000001afa4      0x64a zephyr/kernel/libkernel.a(queue.c.obj)
 .debug_loc     0x000000000001b5ee     0x10c6 zephyr/kernel/libkernel.a(sched.c.obj)
 .debug_loc     0x000000000001c6b4      0x447 zephyr/kernel/libkernel.a(sem.c.obj)
 .debug_loc     0x000000000001cafb      0x524 zephyr/kernel/libkernel.a(sys_clock.c.obj)
 .debug_loc     0x000000000001d01f       0x21 zephyr/kernel/libkernel.a(system_work_q.c.obj)
 .debug_loc     0x000000000001d040      0xd56 zephyr/kernel/libkernel.a(thread.c.obj)
 .debug_loc     0x000000000001dd96      0x7c1 zephyr/kernel/libkernel.a(work_q.c.obj)
 .debug_loc     0x000000000001e557      0x7db zephyr/kernel/libkernel.a(timer.c.obj)
 .debug_loc     0x000000000001ed32      0x808 zephyr/kernel/libkernel.a(poll.c.obj)
 .debug_loc     0x000000000001f53a       0xa5 /home/swap/directory/sysroots/armv5-zephyr-eabi/usr/lib/arm-zephyr-eabi/6.2.0/armv7e-m/libgcc.a(_popcountsi2.o)
 .debug_loc     0x000000000001f5df      0xd77 /home/swap/directory/sysroots/armv5-zephyr-eabi/usr/lib/arm-zephyr-eabi/6.2.0/armv7e-m/libgcc.a(_udivmoddi4.o)

.debug_ranges   0x0000000000000000     0x43a8
 .debug_ranges  0x0000000000000000       0x90 libapp.a(string.c.obj)
 .debug_ranges  0x0000000000000090      0x170 libapp.a(main.c.obj)
 .debug_ranges  0x0000000000000200       0x10 zephyr/libzephyr.a(isr_tables.c.obj)
 .debug_ranges  0x0000000000000210       0x18 zephyr/libzephyr.a(soc.c.obj)
 .debug_ranges  0x0000000000000228       0x30 zephyr/libzephyr.a(irq_init.c.obj)
 .debug_ranges  0x0000000000000258       0x10 zephyr/libzephyr.a(swap.c.obj)
 .debug_ranges  0x0000000000000268       0x20 zephyr/libzephyr.a(swap_helper.S.obj)
 .debug_ranges  0x0000000000000288       0x88 zephyr/libzephyr.a(fault.c.obj)
 .debug_ranges  0x0000000000000310       0x50 zephyr/libzephyr.a(irq_manage.c.obj)
 .debug_ranges  0x0000000000000360       0x40 zephyr/libzephyr.a(thread.c.obj)
 .debug_ranges  0x00000000000003a0       0x38 zephyr/libzephyr.a(cpu_idle.S.obj)
 .debug_ranges  0x00000000000003d8       0x20 zephyr/libzephyr.a(fatal.c.obj)
 .debug_ranges  0x00000000000003f8       0x28 zephyr/libzephyr.a(sys_fatal_error_handler.c.obj)
 .debug_ranges  0x0000000000000420       0x10 zephyr/libzephyr.a(thread_abort.c.obj)
 .debug_ranges  0x0000000000000430       0x10 zephyr/libzephyr.a(prep_c.c.obj)
 .debug_ranges  0x0000000000000440       0x10 zephyr/libzephyr.a(nmi.c.obj)
 .debug_ranges  0x0000000000000450      0x138 zephyr/libzephyr.a(arm_mpu.c.obj)
 .debug_ranges  0x0000000000000588       0x10 zephyr/libzephyr.a(configs.c.obj)
 .debug_ranges  0x0000000000000598       0x10 zephyr/libzephyr.a(rand32_entropy_device.c.obj)
 .debug_ranges  0x00000000000005a8       0x80 zephyr/libzephyr.a(nrf5_power_clock.c.obj)
 .debug_ranges  0x0000000000000628       0xc8 zephyr/libzephyr.a(gpio_nrf5.c.obj)
 .debug_ranges  0x00000000000006f0       0xd0 zephyr/libzephyr.a(uart_nrf5.c.obj)
 .debug_ranges  0x00000000000007c0       0xc0 zephyr/libzephyr.a(entropy_nrf5.c.obj)
 .debug_ranges  0x0000000000000880       0x70 zephyr/libzephyr.a(nrf_rtc_timer.c.obj)
 .debug_ranges  0x00000000000008f0       0x20 zephyr/subsys/bluetooth/common/libsubsys__bluetooth__common.a(rpa.c.obj)
 .debug_ranges  0x0000000000000910       0x40 zephyr/subsys/bluetooth/host/libsubsys__bluetooth__host.a(hci_raw.c.obj)
 .debug_ranges  0x0000000000000950       0x88 zephyr/subsys/bluetooth/controller/libsubsys__bluetooth__controller.a(mem.c.obj)
 .debug_ranges  0x00000000000009d8       0x40 zephyr/subsys/bluetooth/controller/libsubsys__bluetooth__controller.a(memq.c.obj)
 .debug_ranges  0x0000000000000a18       0x78 zephyr/subsys/bluetooth/controller/libsubsys__bluetooth__controller.a(mayfly.c.obj)
 .debug_ranges  0x0000000000000a90       0x10 zephyr/subsys/bluetooth/controller/libsubsys__bluetooth__controller.a(util.c.obj)
 .debug_ranges  0x0000000000000aa0      0x358 zephyr/subsys/bluetooth/controller/libsubsys__bluetooth__controller.a(ticker.c.obj)
 .debug_ranges  0x0000000000000df8       0x18 zephyr/subsys/bluetooth/controller/libsubsys__bluetooth__controller.a(ll_addr.c.obj)
 .debug_ranges  0x0000000000000e10       0x18 zephyr/subsys/bluetooth/controller/libsubsys__bluetooth__controller.a(ll_tx_pwr.c.obj)
 .debug_ranges  0x0000000000000e28       0x20 zephyr/subsys/bluetooth/controller/libsubsys__bluetooth__controller.a(crypto.c.obj)
 .debug_ranges  0x0000000000000e48       0xd8 zephyr/subsys/bluetooth/controller/libsubsys__bluetooth__controller.a(hci_driver.c.obj)
 .debug_ranges  0x0000000000000f20      0x550 zephyr/subsys/bluetooth/controller/libsubsys__bluetooth__controller.a(hci.c.obj)
 .debug_ranges  0x0000000000001470     0x1090 zephyr/subsys/bluetooth/controller/libsubsys__bluetooth__controller.a(ctrl.c.obj)
 .debug_ranges  0x0000000000002500       0x40 zephyr/subsys/bluetooth/controller/libsubsys__bluetooth__controller.a(ll.c.obj)
 .debug_ranges  0x0000000000002540       0x80 zephyr/subsys/bluetooth/controller/libsubsys__bluetooth__controller.a(ll_adv.c.obj)
 .debug_ranges  0x00000000000025c0       0x18 zephyr/subsys/bluetooth/controller/libsubsys__bluetooth__controller.a(ll_scan.c.obj)
 .debug_ranges  0x00000000000025d8       0x10 zephyr/subsys/bluetooth/controller/libsubsys__bluetooth__controller.a(ll_master.c.obj)
 .debug_ranges  0x00000000000025e8       0x50 zephyr/subsys/bluetooth/controller/libsubsys__bluetooth__controller.a(ll_test.c.obj)
 .debug_ranges  0x0000000000002638      0x2b0 zephyr/subsys/bluetooth/controller/libsubsys__bluetooth__controller.a(ll_filter.c.obj)
 .debug_ranges  0x00000000000028e8       0x30 zephyr/subsys/bluetooth/controller/libsubsys__bluetooth__controller.a(cntr.c.obj)
 .debug_ranges  0x0000000000002918       0x58 zephyr/subsys/bluetooth/controller/libsubsys__bluetooth__controller.a(ecb.c.obj)
 .debug_ranges  0x0000000000002970      0x288 zephyr/subsys/bluetooth/controller/libsubsys__bluetooth__controller.a(radio.c.obj)
 .debug_ranges  0x0000000000002bf8       0x28 zephyr/subsys/bluetooth/controller/libsubsys__bluetooth__controller.a(mayfly.c.obj)
 .debug_ranges  0x0000000000002c20       0x40 zephyr/subsys/bluetooth/controller/libsubsys__bluetooth__controller.a(ticker.c.obj)
 .debug_ranges  0x0000000000002c60      0x370 zephyr/subsys/net/libsubsys__net.a(buf.c.obj)
 .debug_ranges  0x0000000000002fd0       0x20 zephyr/kernel/libkernel.a(device.c.obj)
 .debug_ranges  0x0000000000002ff0       0x10 zephyr/kernel/libkernel.a(errno.c.obj)
 .debug_ranges  0x0000000000003000       0xa0 zephyr/kernel/libkernel.a(idle.c.obj)
 .debug_ranges  0x00000000000030a0       0x68 zephyr/kernel/libkernel.a(init.c.obj)
 .debug_ranges  0x0000000000003108      0x3a8 zephyr/kernel/libkernel.a(mempool.c.obj)
 .debug_ranges  0x00000000000034b0      0x100 zephyr/kernel/libkernel.a(queue.c.obj)
 .debug_ranges  0x00000000000035b0      0x2b8 zephyr/kernel/libkernel.a(sched.c.obj)
 .debug_ranges  0x0000000000003868      0x118 zephyr/kernel/libkernel.a(sem.c.obj)
 .debug_ranges  0x0000000000003980      0x1e8 zephyr/kernel/libkernel.a(sys_clock.c.obj)
 .debug_ranges  0x0000000000003b68       0x10 zephyr/kernel/libkernel.a(system_work_q.c.obj)
 .debug_ranges  0x0000000000003b78      0x240 zephyr/kernel/libkernel.a(thread.c.obj)
 .debug_ranges  0x0000000000003db8      0x178 zephyr/kernel/libkernel.a(work_q.c.obj)
 .debug_ranges  0x0000000000003f30      0x190 zephyr/kernel/libkernel.a(timer.c.obj)
 .debug_ranges  0x00000000000040c0      0x208 zephyr/kernel/libkernel.a(poll.c.obj)
 .debug_ranges  0x00000000000042c8       0x10 zephyr/CMakeFiles/offsets.dir/arch/arm/core/offsets/offsets.c.obj
 .debug_ranges  0x00000000000042d8       0xd0 /home/swap/directory/sysroots/armv5-zephyr-eabi/usr/lib/arm-zephyr-eabi/6.2.0/armv7e-m/libgcc.a(_udivmoddi4.o)

.debug_frame    0x0000000000000000     0x42e0
 .debug_frame   0x0000000000000000      0x154 libapp.a(string.c.obj)
 .debug_frame   0x0000000000000154      0x100 libapp.a(main.c.obj)
 .debug_frame   0x0000000000000254       0x20 zephyr/libzephyr.a(isr_tables.c.obj)
 .debug_frame   0x0000000000000274       0x38 zephyr/libzephyr.a(soc.c.obj)
 .debug_frame   0x00000000000002ac       0x20 zephyr/libzephyr.a(irq_init.c.obj)
 .debug_frame   0x00000000000002cc       0x20 zephyr/libzephyr.a(swap.c.obj)
 .debug_frame   0x00000000000002ec       0x70 zephyr/libzephyr.a(fault.c.obj)
 .debug_frame   0x000000000000035c       0x78 zephyr/libzephyr.a(irq_manage.c.obj)
 .debug_frame   0x00000000000003d4       0x30 zephyr/libzephyr.a(thread.c.obj)
 .debug_frame   0x0000000000000404       0x5c zephyr/libzephyr.a(fatal.c.obj)
 .debug_frame   0x0000000000000460       0x2c zephyr/libzephyr.a(sys_fatal_error_handler.c.obj)
 .debug_frame   0x000000000000048c       0x34 zephyr/libzephyr.a(thread_abort.c.obj)
 .debug_frame   0x00000000000004c0       0x28 zephyr/libzephyr.a(prep_c.c.obj)
 .debug_frame   0x00000000000004e8       0x2c zephyr/libzephyr.a(nmi.c.obj)
 .debug_frame   0x0000000000000514       0x64 zephyr/libzephyr.a(arm_mpu.c.obj)
 .debug_frame   0x0000000000000578       0x20 zephyr/libzephyr.a(configs.c.obj)
 .debug_frame   0x0000000000000598       0x2c zephyr/libzephyr.a(rand32_entropy_device.c.obj)
 .debug_frame   0x00000000000005c4       0xa0 zephyr/libzephyr.a(nrf5_power_clock.c.obj)
 .debug_frame   0x0000000000000664      0x138 zephyr/libzephyr.a(gpio_nrf5.c.obj)
 .debug_frame   0x000000000000079c      0x1a4 zephyr/libzephyr.a(uart_nrf5.c.obj)
 .debug_frame   0x0000000000000940       0xb8 zephyr/libzephyr.a(entropy_nrf5.c.obj)
 .debug_frame   0x00000000000009f8       0xac zephyr/libzephyr.a(nrf_rtc_timer.c.obj)
 .debug_frame   0x0000000000000aa4       0x78 zephyr/subsys/bluetooth/common/libsubsys__bluetooth__common.a(rpa.c.obj)
 .debug_frame   0x0000000000000b1c       0x98 zephyr/subsys/bluetooth/host/libsubsys__bluetooth__host.a(hci_raw.c.obj)
 .debug_frame   0x0000000000000bb4       0xf0 zephyr/subsys/bluetooth/controller/libsubsys__bluetooth__controller.a(mem.c.obj)
 .debug_frame   0x0000000000000ca4       0x58 zephyr/subsys/bluetooth/controller/libsubsys__bluetooth__controller.a(memq.c.obj)
 .debug_frame   0x0000000000000cfc       0xb8 zephyr/subsys/bluetooth/controller/libsubsys__bluetooth__controller.a(mayfly.c.obj)
 .debug_frame   0x0000000000000db4       0x28 zephyr/subsys/bluetooth/controller/libsubsys__bluetooth__controller.a(util.c.obj)
 .debug_frame   0x0000000000000ddc      0x21c zephyr/subsys/bluetooth/controller/libsubsys__bluetooth__controller.a(ticker.c.obj)
 .debug_frame   0x0000000000000ff8       0x44 zephyr/subsys/bluetooth/controller/libsubsys__bluetooth__controller.a(ll_addr.c.obj)
 .debug_frame   0x000000000000103c       0x30 zephyr/subsys/bluetooth/controller/libsubsys__bluetooth__controller.a(ll_tx_pwr.c.obj)
 .debug_frame   0x000000000000106c       0x60 zephyr/subsys/bluetooth/controller/libsubsys__bluetooth__controller.a(crypto.c.obj)
 .debug_frame   0x00000000000010cc       0xe0 zephyr/subsys/bluetooth/controller/libsubsys__bluetooth__controller.a(hci_driver.c.obj)
 .debug_frame   0x00000000000011ac      0x2dc zephyr/subsys/bluetooth/controller/libsubsys__bluetooth__controller.a(hci.c.obj)
 .debug_frame   0x0000000000001488      0xf98 zephyr/subsys/bluetooth/controller/libsubsys__bluetooth__controller.a(ctrl.c.obj)
 .debug_frame   0x0000000000002420       0xb4 zephyr/subsys/bluetooth/controller/libsubsys__bluetooth__controller.a(ll.c.obj)
 .debug_frame   0x00000000000024d4       0xcc zephyr/subsys/bluetooth/controller/libsubsys__bluetooth__controller.a(ll_adv.c.obj)
 .debug_frame   0x00000000000025a0       0x68 zephyr/subsys/bluetooth/controller/libsubsys__bluetooth__controller.a(ll_scan.c.obj)
 .debug_frame   0x0000000000002608       0x50 zephyr/subsys/bluetooth/controller/libsubsys__bluetooth__controller.a(ll_master.c.obj)
 .debug_frame   0x0000000000002658       0xc4 zephyr/subsys/bluetooth/controller/libsubsys__bluetooth__controller.a(ll_test.c.obj)
 .debug_frame   0x000000000000271c      0x448 zephyr/subsys/bluetooth/controller/libsubsys__bluetooth__controller.a(ll_filter.c.obj)
 .debug_frame   0x0000000000002b64       0x68 zephyr/subsys/bluetooth/controller/libsubsys__bluetooth__controller.a(cntr.c.obj)
 .debug_frame   0x0000000000002bcc       0xec zephyr/subsys/bluetooth/controller/libsubsys__bluetooth__controller.a(ecb.c.obj)
 .debug_frame   0x0000000000002cb8      0x4cc zephyr/subsys/bluetooth/controller/libsubsys__bluetooth__controller.a(radio.c.obj)
 .debug_frame   0x0000000000003184       0x74 zephyr/subsys/bluetooth/controller/libsubsys__bluetooth__controller.a(mayfly.c.obj)
 .debug_frame   0x00000000000031f8       0x5c zephyr/subsys/bluetooth/controller/libsubsys__bluetooth__controller.a(ticker.c.obj)
 .debug_frame   0x0000000000003254      0x3e0 zephyr/subsys/net/libsubsys__net.a(buf.c.obj)
 .debug_frame   0x0000000000003634       0x68 zephyr/kernel/libkernel.a(device.c.obj)
 .debug_frame   0x000000000000369c       0x20 zephyr/kernel/libkernel.a(errno.c.obj)
 .debug_frame   0x00000000000036bc       0x58 zephyr/kernel/libkernel.a(idle.c.obj)
 .debug_frame   0x0000000000003714       0x88 zephyr/kernel/libkernel.a(init.c.obj)
 .debug_frame   0x000000000000379c      0x100 zephyr/kernel/libkernel.a(mempool.c.obj)
 .debug_frame   0x000000000000389c       0xdc zephyr/kernel/libkernel.a(queue.c.obj)
 .debug_frame   0x0000000000003978      0x210 zephyr/kernel/libkernel.a(sched.c.obj)
 .debug_frame   0x0000000000003b88       0x94 zephyr/kernel/libkernel.a(sem.c.obj)
 .debug_frame   0x0000000000003c1c       0xb4 zephyr/kernel/libkernel.a(sys_clock.c.obj)
 .debug_frame   0x0000000000003cd0       0x28 zephyr/kernel/libkernel.a(system_work_q.c.obj)
 .debug_frame   0x0000000000003cf8      0x248 zephyr/kernel/libkernel.a(thread.c.obj)
 .debug_frame   0x0000000000003f40       0xcc zephyr/kernel/libkernel.a(work_q.c.obj)
 .debug_frame   0x000000000000400c      0x120 zephyr/kernel/libkernel.a(timer.c.obj)
 .debug_frame   0x000000000000412c      0x114 zephyr/kernel/libkernel.a(poll.c.obj)
 .debug_frame   0x0000000000004240       0x20 zephyr/CMakeFiles/offsets.dir/arch/arm/core/offsets/offsets.c.obj
 .debug_frame   0x0000000000004260       0x2c /home/swap/directory/sysroots/armv5-zephyr-eabi/usr/lib/arm-zephyr-eabi/6.2.0/armv7e-m/libgcc.a(_aeabi_uldivmod.o)
 .debug_frame   0x000000000000428c       0x20 /home/swap/directory/sysroots/armv5-zephyr-eabi/usr/lib/arm-zephyr-eabi/6.2.0/armv7e-m/libgcc.a(_popcountsi2.o)
 .debug_frame   0x00000000000042ac       0x34 /home/swap/directory/sysroots/armv5-zephyr-eabi/usr/lib/arm-zephyr-eabi/6.2.0/armv7e-m/libgcc.a(_udivmoddi4.o)
